ASxxxx Linker V03.00/V05.40 + sdld,  page 1.
Hexadecimal  [32-Bits]

Area                                    Addr        Size        Decimal Bytes (Attributes)
--------------------------------        ----        ----        ------- ----- ------------
.  .ABS.                            00000000    00000000 =           0. bytes (ABS,CON)

      Value  Global                              Global Defined In Module
      -----  --------------------------------   ------------------------
     00000000  .__.ABS.                           
     00000000  _rRAMG                             
     00000000  l__BASE                         
     00000000  l__BSS                          
     00000000  l__CABS                         
     00000000  l__CODE_0                       
     00000000  l__CRASH_HEADER                 
     00000000  l__CRASH_SCRATCH                
     00000000  l__DABS                         
     00000000  l__HEADER                       
     00000000  l__HEADER_LCD                   
     00000000  l__HEADER_SIO                   
     00000000  l__HEADER_TIMER                 
     00000000  l__HEAP                         
     00000000  l__HEAP_END                     
     00000000  l__HRAM                         
     00000000  l__LIT                          
     00000000  s__CABS                         
     00000000  s__CRASH_HEADER                 
     00000000  s__CRASH_HEADER0                
     00000000  s__CRASH_HEADER1                
     00000000  s__CRASH_SCRATCH                
     00000000  s__CRASH_SCRATCH2               
     00000000  s__DABS                         
     00000000  s__HEADER                       
     00000000  s__HEADER0                      
     00000000  s__HEADER1                      
     00000000  s__HEADER10                     
     00000000  s__HEADER11                     
     00000000  s__HEADER2                      
     00000000  s__HEADER3                      
     00000000  s__HEADER4                      
     00000000  s__HEADER5                      
     00000000  s__HEADER6                      
     00000000  s__HEADER7                      
     00000000  s__HEADER8                      
     00000000  s__HEADER9                      
     00000000  s__HEADER_LCD                   
     00000000  s__HEADER_LCD0                  
     00000000  s__HEADER_SIO                   
     00000000  s__HEADER_SIO0                  
     00000000  s__HEADER_TIMER                 
     00000000  s__HEADER_TIMER0                
     00000000  s__HEADERa                      
     00000000  s__HEADERb                      
     00000000  s__HEADERc                      
     00000000  s__HEADERd                      
     00000000  s__HEADERe                      
     00000000  s__HEADERf                      
     00000000  s__HRAM                         
ASxxxx Linker V03.00/V05.40 + sdld,  page 2.
Hexadecimal  [32-Bits]

Area                                    Addr        Size        Decimal Bytes (Attributes)
--------------------------------        ----        ----        ------- ----- ------------
.  .ABS.                            00000000    00000000 =           0. bytes (ABS,CON)

      Value  Global                              Global Defined In Module
      -----  --------------------------------   ------------------------
     00000000  s__HRAM12                       
     00000001  ___bank_ACTOR                      actor
     00000001  ___bank_VM_SGB                     vm_sgb
     00000001  b_SIO_init                         sio
     00000001  b_activate_actor                   actor
     00000001  b_activate_actors_in_col           actor
     00000001  b_activate_actors_in_row           actor
     00000001  b_actor_at_tile                    actor
     00000001  b_actor_get_frame_offset           actor
     00000001  b_actor_in_front_of_player         actor
     00000001  b_actor_overlapping_bb             actor
     00000001  b_actor_overlapping_player         actor
     00000001  b_actor_set_anim_idle              actor
     00000001  b_actor_set_anim_moving            actor
     00000001  b_actor_set_dir                    actor
     00000001  b_actor_set_frame_offset           actor
     00000001  b_actor_set_frames                 actor
     00000001  b_actors_handle_player_collision   actor
     00000001  b_actors_init                      actor
     00000001  b_check_collision_in_direction     actor
     00000001  b_deactivate_actor                 actor
     00000001  b_platform_init                    platform
     00000001  b_platform_update                  platform
     00000001  b_player_init                      actor
     00000001  b_scroll_init                      scroll
     00000001  b_scroll_repaint                   scroll
     00000001  b_scroll_reset                     scroll
     00000001  b_scroll_update                    scroll
     00000001  b_ui_draw_frame                    ui
     00000001  b_ui_draw_text_buffer_char         ui
     00000001  b_ui_init                          ui
     00000001  b_ui_load_tiles                    ui
     00000001  b_ui_run_menu                      ui
     00000001  b_ui_run_modal                     ui
     00000001  b_ui_set_start_tile                ui
     00000001  l__GSFINAL                      
     00000001  l__HEADER0                      
     00000001  l__HEADER5                      
     00000001  l__HEADERa                      
     00000001  l__HEADERb                      
     00000001  l__HEADERc                      
     00000001  l__HEADERe                      
     00000001  l__HEADERf                      
     00000002  ___bank_VM_ACTOR                   vm_actor
     00000002  ___bank_bg_leaving_earth_tilemap   bg_leaving_earth_tilemap_att
     00000002  ___bank_bg_stars_tileset           bg_stars_tileset
     00000002  ___bank_bootstrap_script           
     00000002  ___bank_song_rulz_lightmood_0_Da   song_rulz_lightmood_0_Data
     00000002  ___mute_mask_sound_gbstudio_sfx_   sound_gbstudio_sfx_sav
     00000002  ___mute_mask_sound_gbstudio_sfx_   sound_gbstudio_sfx_sav
     00000002  ___mute_mask_sound_gbstudio_sfx_   sound_gbstudio_sfx_sav
ASxxxx Linker V03.00/V05.40 + sdld,  page 3.
Hexadecimal  [32-Bits]

Area                                    Addr        Size        Decimal Bytes (Attributes)
--------------------------------        ----        ----        ------- ----- ------------
.  .ABS.                            00000000    00000000 =           0. bytes (ABS,CON)

      Value  Global                              Global Defined In Module
      -----  --------------------------------   ------------------------
     00000002  ___mute_mask_sound_gbstudio_sfx_   sound_gbstudio_sfx_sav
     00000002  ___mute_mask_sound_gbstudio_sfx_   sound_gbstudio_sfx_sav
     00000002  ___mute_mask_sound_gbstudio_sfx_   sound_gbstudio_sfx_sav
     00000002  ___mute_mask_sound_gbstudio_sfx_   sound_gbstudio_sfx_sav
     00000002  b_topdown_init                     topdown
     00000002  b_topdown_update                   topdown
     00000002  b_vm_actor_activate                vm_actor
     00000002  b_vm_actor_begin_update            vm_actor
     00000002  b_vm_actor_deactivate              vm_actor
     00000002  b_vm_actor_emote                   vm_actor
     00000002  b_vm_actor_get_angle               vm_actor
     00000002  b_vm_actor_get_anim_frame          vm_actor
     00000002  b_vm_actor_get_dir                 vm_actor
     00000002  b_vm_actor_get_pos                 vm_actor
     00000002  b_vm_actor_move_cancel             vm_actor
     00000002  b_vm_actor_move_to                 vm_actor
     00000002  b_vm_actor_replace_tile            vm_actor
     00000002  b_vm_actor_set_anim                vm_actor
     00000002  b_vm_actor_set_anim_frame          vm_actor
     00000002  b_vm_actor_set_anim_set            vm_actor
     00000002  b_vm_actor_set_anim_tick           vm_actor
     00000002  b_vm_actor_set_bounds              vm_actor
     00000002  b_vm_actor_set_dir                 vm_actor
     00000002  b_vm_actor_set_flags               vm_actor
     00000002  b_vm_actor_set_move_speed          vm_actor
     00000002  b_vm_actor_set_pos                 vm_actor
     00000002  b_vm_actor_set_spritesheet         vm_actor
     00000002  b_vm_actor_set_spritesheet_by_re   vm_actor
     00000002  b_vm_actor_terminate_update        vm_actor
     00000002  l__HEADER10                     
     00000002  l__HEADER6                      
     00000002  l__HEADERd                      
     00000003  ___bank_bg_house_tileset           bg_house_tileset
     00000003  ___bank_bg_leaving_earth_tilemap   bg_leaving_earth_tilemap
     00000003  ___bank_scene_12_collisions        scene_12_collisions
     00000003  ___bank_song_drum_example_Data     song_drum_example_Data
     00000003  ___bank_song_rulz_battletheme_0_   song_rulz_battletheme_0_Data
     00000003  l__HEADER9                      
     00000003  l__HEADER_LCD0                  
     00000003  l__HRAM12                       
     00000004  ___bank_VM_MAIN                    vm
     00000004  ___bank_actor_18_update            actor_18_update
     00000004  ___bank_bg_parallax_tileset        bg_parallax_tileset
     00000004  ___bank_font_gbs_variable_width    font_gbs_variable_width
     00000004  ___bank_song_rulz_intro_0_Data     song_rulz_intro_0_Data
     00000004  ___bank_sprite_player_platform     sprite_player_platform
     00000004  b_do_load_palette                  data_manager
     00000004  b_load_background                  data_manager
     00000004  b_load_bkg_tileset                 data_manager
     00000004  b_load_bounds                      data_manager
     00000004  b_load_emote                       data_manager
ASxxxx Linker V03.00/V05.40 + sdld,  page 4.
Hexadecimal  [32-Bits]

Area                                    Addr        Size        Decimal Bytes (Attributes)
--------------------------------        ----        ----        ------- ----- ------------
.  .ABS.                            00000000    00000000 =           0. bytes (ABS,CON)

      Value  Global                              Global Defined In Module
      -----  --------------------------------   ------------------------
     00000004  b_load_init                        data_manager
     00000004  b_load_player                      data_manager
     00000004  b_load_scene                       data_manager
     00000004  b_load_sprite                      data_manager
     00000004  b_script_detach_hthread            vm
     00000004  b_script_execute                   vm
     00000004  b_script_runner_init               vm
     00000004  b_script_terminate                 vm
     00000004  b_vm_call                          vm
     00000004  b_vm_call_far                      vm
     00000004  b_vm_get_indirect                  vm
     00000004  b_vm_get_tlocal                    vm
     00000004  b_vm_idle                          vm
     00000004  b_vm_if                            vm
     00000004  b_vm_if_const                      vm
     00000004  b_vm_init_rng                      vm
     00000004  b_vm_invoke                        vm
     00000004  b_vm_join                          vm
     00000004  b_vm_jump                          vm
     00000004  b_vm_lock                          vm
     00000004  b_vm_loop                          vm
     00000004  b_vm_memcpy                        vm
     00000004  b_vm_memset                        vm
     00000004  b_vm_poll_loaded                   vm
     00000004  b_vm_pop                           vm
     00000004  b_vm_push                          vm
     00000004  b_vm_push_reference                vm
     00000004  b_vm_push_value                    vm
     00000004  b_vm_push_value_ind                vm
     00000004  b_vm_raise                         vm
     00000004  b_vm_rand                          vm
     00000004  b_vm_reserve                       vm
     00000004  b_vm_ret                           vm
     00000004  b_vm_ret_far                       vm
     00000004  b_vm_set                           vm
     00000004  b_vm_set_const                     vm
     00000004  b_vm_set_indirect                  vm
     00000004  b_vm_terminate                     vm
     00000004  b_vm_test_terminate                vm
     00000004  b_vm_unlock                        vm
     00000004  b_wait_frames                      vm
     00000004  l__CRASH_HEADER1                
     00000004  l__HEADER_SIO0                  
     00000004  l__HEADER_TIMER0                
     00000005  ___bank_VM_GAMEBOY                 vm_gameboy
     00000005  ___bank_VM_UI                      vm_ui
     00000005  ___bank_bg_launch_site_tileset     bg_launch_site_tileset
     00000005  ___bank_bg_logo_tileset            bg_logo_tileset
     00000005  ___bank_bg_parallax_tilemap        bg_parallax_tilemap
     00000005  ___bank_bg_parallax_tilemap_attr   bg_parallax_tilemap_attr
     00000005  ___bank_bg_titlescreen_tileset     bg_titlescreen_tileset
ASxxxx Linker V03.00/V05.40 + sdld,  page 5.
Hexadecimal  [32-Bits]

Area                                    Addr        Size        Decimal Bytes (Attributes)
--------------------------------        ----        ----        ------- ----- ------------
.  .ABS.                            00000000    00000000 =           0. bytes (ABS,CON)

      Value  Global                              Global Defined In Module
      -----  --------------------------------   ------------------------
     00000005  ___bank_scene_12_actors            scene_12_actors
     00000005  ___bank_scene_19_collisions        scene_19_collisions
     00000005  ___bank_sprite_hidden_stairs_til   sprite_hidden_stairs_tileset
     00000005  b_projectile_launch                projectiles
     00000005  b_projectiles_init                 projectiles
     00000005  b_shmup_init                       shmup
     00000005  b_shmup_update                     shmup
     00000005  b_vm_choice                        vm_ui
     00000005  b_vm_context_prepare               vm_gameboy
     00000005  b_vm_display_text                  vm_ui
     00000005  b_vm_fade                          vm_gameboy
     00000005  b_vm_get_tile_xy                   vm_gameboy
     00000005  b_vm_input_attach                  vm_gameboy
     00000005  b_vm_input_detach                  vm_gameboy
     00000005  b_vm_input_get                     vm_gameboy
     00000005  b_vm_input_wait                    vm_gameboy
     00000005  b_vm_load_tileset                  vm_gameboy
     00000005  b_vm_overlay_clear                 vm_ui
     00000005  b_vm_overlay_move_to               vm_ui
     00000005  b_vm_overlay_scroll                vm_ui
     00000005  b_vm_overlay_set_map               vm_ui
     00000005  b_vm_overlay_set_scroll            vm_ui
     00000005  b_vm_overlay_set_submap            vm_ui
     00000005  b_vm_overlay_set_submap_ex         vm_ui
     00000005  b_vm_overlay_setpos                vm_ui
     00000005  b_vm_overlay_show                  vm_ui
     00000005  b_vm_overlay_wait                  vm_ui
     00000005  b_vm_poll                          vm_gameboy
     00000005  b_vm_replace_tile                  vm_gameboy
     00000005  b_vm_replace_tile_xy               vm_gameboy
     00000005  b_vm_rumble                        vm_gameboy
     00000005  b_vm_set_font                      vm_ui
     00000005  b_vm_set_sprite_mode               vm_gameboy
     00000005  b_vm_set_sprites_visible           vm_gameboy
     00000005  b_vm_set_text_sound                vm_ui
     00000005  b_vm_switch_text_layer             vm_ui
     00000005  b_vm_timer_prepare                 vm_gameboy
     00000005  b_vm_timer_reset                   vm_gameboy
     00000005  b_vm_timer_set                     vm_gameboy
     00000005  b_vm_timer_stop                    vm_gameboy
     00000005  l__CRASH_HEADER0                
     00000005  l__HEADER1                      
     00000006  ___bank_VM_CAMERA                  vm_camera
     00000006  ___bank_VM_PALETTE                 vm_palette
     00000006  ___bank_VM_SIO                     vm_sio
     00000006  ___bank_bg_house_wide_tilemap      bg_house_wide_tilemap
     00000006  ___bank_bg_house_wide_tilemap_at   bg_house_wide_tilemap_attr
     00000006  ___bank_bg_leaving_earth_tileset   bg_leaving_earth_tileset
     00000006  ___bank_bg_stars_tilemap           bg_stars_tilemap
     00000006  ___bank_bg_stars_tilemap_attr      bg_stars_tilemap_attr
     00000006  ___bank_scene_15_sprites           scene_15_sprites
ASxxxx Linker V03.00/V05.40 + sdld,  page 6.
Hexadecimal  [32-Bits]

Area                                    Addr        Size        Decimal Bytes (Attributes)
--------------------------------        ----        ----        ------- ----- ------------
.  .ABS.                            00000000    00000000 =           0. bytes (ABS,CON)

      Value  Global                              Global Defined In Module
      -----  --------------------------------   ------------------------
     00000006  ___bank_scene_20_actors            scene_20_actors
     00000006  ___bank_scene_20_collisions        scene_20_collisions
     00000006  ___bank_scene_9_collisions         scene_9_collisions
     00000006  ___bank_sound_gbstudio_sfx_sav_0   sound_gbstudio_sfx_sav
     00000006  ___bank_sound_gbstudio_sfx_sav_0   sound_gbstudio_sfx_sav
     00000006  ___bank_sound_gbstudio_sfx_sav_0   sound_gbstudio_sfx_sav
     00000006  ___bank_sound_gbstudio_sfx_sav_0   sound_gbstudio_sfx_sav
     00000006  ___bank_sound_gbstudio_sfx_sav_0   sound_gbstudio_sfx_sav
     00000006  ___bank_sound_gbstudio_sfx_sav_0   sound_gbstudio_sfx_sav
     00000006  ___bank_sound_gbstudio_sfx_sav_0   sound_gbstudio_sfx_sav
     00000006  ___bank_sound_gbstudio_sfx_sav_0   sound_gbstudio_sfx_sav
     00000006  ___bank_sound_gbstudio_sfx_sav_0   sound_gbstudio_sfx_sav
     00000006  ___bank_sound_gbstudio_sfx_sav_0   sound_gbstudio_sfx_sav
     00000006  ___bank_sprite_npc004_tileset      sprite_npc004_tileset
     00000006  ___bank_sprite_player_platform_t   sprite_player_platform_tiles
     00000006  b___HandleCrash_banked             
     00000006  b_atan2                            math_atan2
     00000006  b_camera_init                      camera
     00000006  b_camera_shake_frames              vm_camera
     00000006  b_core_reset                       core
     00000006  b_core_run                         core
     00000006  b_data_clear                       load_save
     00000006  b_data_init                        load_save
     00000006  b_data_load                        load_save
     00000006  b_data_peek                        load_save
     00000006  b_data_save                        load_save
     00000006  b_fade_applypalettechange          fade_manager
     00000006  b_fade_in                          fade_manager
     00000006  b_fade_in_modal                    fade_manager
     00000006  b_fade_init                        fade_manager
     00000006  b_fade_out                         fade_manager
     00000006  b_fade_out_modal                   fade_manager
     00000006  b_fade_setspeed                    fade_manager
     00000006  b_fade_update                      fade_manager
     00000006  b_gbprinter_detect                 gbprinter
     00000006  b_gbprinter_print_overlay          gbprinter
     00000006  b_set_sgb_border                   sgb_border
     00000006  b_trigger_activate_at              trigger
     00000006  b_trigger_activate_at_intersecti   trigger
     00000006  b_trigger_at_intersection          trigger
     00000006  b_trigger_at_tile                  trigger
     00000006  b_trigger_interact                 trigger
     00000006  b_trigger_reset                    trigger
     00000006  b_vm_camera_move_to                vm_camera
     00000006  b_vm_camera_set_pos                vm_camera
     00000006  b_vm_load_palette                  vm_palette
     00000006  b_vm_sio_exchange                  vm_sio
     00000006  b_vm_sio_set_mode                  vm_sio
     00000006  l__HEADER8                      
     00000007  ___bank_VM_GBPRINTER               vm_gbprinter
     00000007  ___bank_VM_LOAD_SAVE               vm_load_save
ASxxxx Linker V03.00/V05.40 + sdld,  page 7.
Hexadecimal  [32-Bits]

Area                                    Addr        Size        Decimal Bytes (Attributes)
--------------------------------        ----        ----        ------- ----- ------------
.  .ABS.                            00000000    00000000 =           0. bytes (ABS,CON)

      Value  Global                              Global Defined In Module
      -----  --------------------------------   ------------------------
     00000007  ___bank_VM_MATH                    vm_math
     00000007  ___bank_VM_MUSIC                   vm_music
     00000007  ___bank_VM_PROJECTILE              vm_projectiles
     00000007  ___bank_VM_RTC                     vm_rtc
     00000007  ___bank_VM_SCENE                   vm_scene
     00000007  ___bank_actor_0_interact           actor_0_interact
     00000007  ___bank_actor_28_interact          actor_28_interact
     00000007  ___bank_actor_30_interact          actor_30_interact
     00000007  ___bank_actor_31_interact          actor_31_interact
     00000007  ___bank_actor_31_update            actor_31_update
     00000007  ___bank_actor_32_interact          actor_32_interact
     00000007  ___bank_actor_33_interact          actor_33_interact
     00000007  ___bank_actor_33_update            actor_33_update
     00000007  ___bank_actor_34_interact          actor_34_interact
     00000007  ___bank_actor_34_update            actor_34_update
     00000007  ___bank_actor_42_interact          actor_42_interact
     00000007  ___bank_actor_43_interact          actor_43_interact
     00000007  ___bank_actor_54_interact          actor_54_interact
     00000007  ___bank_bg_house_tilemap           bg_house_tilemap
     00000007  ___bank_bg_house_tilemap_attr      bg_house_tilemap_attr
     00000007  ___bank_bg_house_wide_tileset      bg_house_wide_tileset
     00000007  ___bank_bg_launch_site_tilemap     bg_launch_site_tilemap
     00000007  ___bank_bg_launch_site_tilemap_a   bg_launch_site_tilemap_attr
     00000007  ___bank_bg_logo_tilemap            bg_logo_tilemap
     00000007  ___bank_bg_logo_tilemap_attr       bg_logo_tilemap_attr
     00000007  ___bank_bg_titlescreen_tilemap     bg_titlescreen_tilemap
     00000007  ___bank_bg_titlescreen_tilemap_a   bg_titlescreen_tilemap_attr
     00000007  ___bank_frame_image                frame_image
     00000007  ___bank_palette_0                  palette_0
     00000007  ___bank_palette_1                  palette_1
     00000007  ___bank_palette_2                  palette_2
     00000007  ___bank_scene_12_init              scene_12_init
     00000007  ___bank_scene_15_collisions        scene_15_collisions
     00000007  ___bank_scene_18_actors            scene_18_actors
     00000007  ___bank_scene_18_collisions        scene_18_collisions
     00000007  ___bank_scene_18_init              scene_18_init
     00000007  ___bank_scene_19_actors            scene_19_actors
     00000007  ___bank_scene_19_init              scene_19_init
     00000007  ___bank_scene_logo_collisions      scene_logo_collisions
     00000007  ___bank_scene_logo_init            scene_logo_init
     00000007  ___bank_scene_title_screen_colli   scene_title_screen_collision
     00000007  ___bank_scene_title_screen_init    scene_title_screen_init
     00000007  ___bank_script_enemy_ship_moveme   script_enemy_ship_movement_
     00000007  ___bank_script_enemy_ship_moveme   script_enemy_ship_movement__
     00000007  ___bank_script_enemy_ship_moveme   script_enemy_ship_movement__
     00000007  ___bank_script_enemy_ship_moveme   script_enemy_ship_movement__
     00000007  ___bank_script_engine_init         
     00000007  ___bank_sound_legacy_0             sound_legacy_0
     00000007  ___bank_sprite_bullet_left_tiles   sprite_bullet_left_tileset
     00000007  ___bank_sprite_bullet_right_tile   sprite_bullet_right_tileset
     00000007  ___bank_sprite_cat_tileset         sprite_cat_tileset
ASxxxx Linker V03.00/V05.40 + sdld,  page 8.
Hexadecimal  [32-Bits]

Area                                    Addr        Size        Decimal Bytes (Attributes)
--------------------------------        ----        ----        ------- ----- ------------
.  .ABS.                            00000000    00000000 =           0. bytes (ABS,CON)

      Value  Global                              Global Defined In Module
      -----  --------------------------------   ------------------------
     00000007  ___bank_sprite_enemy_ship          sprite_enemy_ship
     00000007  ___bank_sprite_enemy_ship_tilese   sprite_enemy_ship_tileset
     00000007  ___bank_sprite_keyboard_tileset    sprite_keyboard_tileset
     00000007  ___bank_sprite_machine_tileset     sprite_machine_tileset
     00000007  ___bank_sprite_npc004              sprite_npc004
     00000007  ___bank_sprite_npc008_tileset      sprite_npc008_tileset
     00000007  ___bank_sprite_player              sprite_player
     00000007  ___bank_sprite_player_ship         sprite_player_ship
     00000007  ___bank_sprite_player_ship_tiles   sprite_player_ship_tileset
     00000007  ___bank_sprite_player_tileset      sprite_player_tileset
     00000007  ___bank_sprite_rock_tileset        sprite_rock_tileset
     00000007  ___bank_sprite_savepoint_tileset   sprite_savepoint_tileset
     00000007  ___bank_sprite_space_mine          sprite_space_mine
     00000007  ___bank_sprite_space_mine_tilese   sprite_space_mine_tileset
     00000007  ___bank_sprite_turnip              sprite_turnip
     00000007  ___bank_sprite_turnip_tileset      sprite_turnip_tileset
     00000007  ___bank_tileset_default_frame      tileset_default_frame
     00000007  b_CGBZeroPalette                   palette
     00000007  b_erase_flash                      
     00000007  b_events_init                      events
     00000007  b_itoa_fmt                         vm_ui_a
     00000007  b_music_events_poll                music_manager
     00000007  b_music_init_driver                music_manager
     00000007  b_music_init_events                music_manager
     00000007  b_palette_init                     palette
     00000007  b_restore_sram                     flasher
     00000007  b_restore_sram_bank                flasher
     00000007  b_save_sram                        flasher
     00000007  b_save_sram_banks                  
     00000007  b_timers_init                      events
     00000007  b_vm_cos_scale                     vm_math
     00000007  b_vm_music_mute                    vm_music
     00000007  b_vm_music_play                    vm_music
     00000007  b_vm_music_routine                 vm_music
     00000007  b_vm_music_setpos                  vm_music
     00000007  b_vm_music_stop                    vm_music
     00000007  b_vm_print_detect                  vm_gbprinter
     00000007  b_vm_print_overlay                 vm_gbprinter
     00000007  b_vm_projectile_launch             vm_projectiles
     00000007  b_vm_projectile_load_type          vm_projectiles
     00000007  b_vm_rtc_get                       vm_rtc
     00000007  b_vm_rtc_latch                     vm_rtc
     00000007  b_vm_rtc_set                       vm_rtc
     00000007  b_vm_rtc_start                     vm_rtc
     00000007  b_vm_save_clear                    vm_load_save
     00000007  b_vm_save_peek                     vm_load_save
     00000007  b_vm_scene_pop                     vm_scene
     00000007  b_vm_scene_pop_all                 vm_scene
     00000007  b_vm_scene_push                    vm_scene
     00000007  b_vm_scene_stack_reset             vm_scene
     00000007  b_vm_sfx_play                      vm_music
ASxxxx Linker V03.00/V05.40 + sdld,  page 9.
Hexadecimal  [32-Bits]

Area                                    Addr        Size        Decimal Bytes (Attributes)
--------------------------------        ----        ----        ------- ----- ------------
.  .ABS.                            00000000    00000000 =           0. bytes (ABS,CON)

      Value  Global                              Global Defined In Module
      -----  --------------------------------   ------------------------
     00000007  b_vm_sin_scale                     vm_math
     00000007  b_vm_sound_mastervol               vm_music
     00000007  l__HEADER2                      
     00000008  ___bank_actor_18_interact          actor_18_interact
     00000008  ___bank_actor_19_interact          actor_19_interact
     00000008  ___bank_actor_19_update            actor_19_update
     00000008  ___bank_actor_20_interact          actor_20_interact
     00000008  ___bank_actor_20_update            actor_20_update
     00000008  ___bank_actor_21_interact          actor_21_interact
     00000008  ___bank_actor_21_update            actor_21_update
     00000008  ___bank_actor_22_interact          actor_22_interact
     00000008  ___bank_actor_22_update            actor_22_update
     00000008  ___bank_actor_23_interact          actor_23_interact
     00000008  ___bank_actor_23_update            actor_23_update
     00000008  ___bank_actor_24_interact          actor_24_interact
     00000008  ___bank_actor_24_update            actor_24_update
     00000008  ___bank_actor_25_interact          actor_25_interact
     00000008  ___bank_actor_25_update            actor_25_update
     00000008  ___bank_actor_26_interact          actor_26_interact
     00000008  ___bank_actor_26_update            actor_26_update
     00000008  ___bank_actor_29_interact          actor_29_interact
     00000008  ___bank_actor_44_interact          actor_44_interact
     00000008  ___bank_actor_44_update            actor_44_update
     00000008  ___bank_actor_45_interact          actor_45_interact
     00000008  ___bank_actor_45_update            actor_45_update
     00000008  ___bank_actor_46_interact          actor_46_interact
     00000008  ___bank_actor_46_update            actor_46_update
     00000008  ___bank_actor_47_interact          actor_47_interact
     00000008  ___bank_actor_47_update            actor_47_update
     00000008  ___bank_actor_48_interact          actor_48_interact
     00000008  ___bank_actor_48_update            actor_48_update
     00000008  ___bank_actor_49_interact          actor_49_interact
     00000008  ___bank_actor_49_update            actor_49_update
     00000008  ___bank_actor_50_interact          actor_50_interact
     00000008  ___bank_actor_50_update            actor_50_update
     00000008  ___bank_actor_51_interact          actor_51_interact
     00000008  ___bank_actor_51_update            actor_51_update
     00000008  ___bank_actor_52_interact          actor_52_interact
     00000008  ___bank_actor_52_update            actor_52_update
     00000008  ___bank_actor_53_interact          actor_53_interact
     00000008  ___bank_actor_53_update            actor_53_update
     00000008  ___bank_bg_house                   bg_house
     00000008  ___bank_bg_house_wide              bg_house_wide
     00000008  ___bank_bg_launch_site             bg_launch_site
     00000008  ___bank_bg_leaving_earth           bg_leaving_earth
     00000008  ___bank_bg_logo                    bg_logo
     00000008  ___bank_bg_parallax                bg_parallax
     00000008  ___bank_bg_stars                   bg_stars
     00000008  ___bank_bg_titlescreen             bg_titlescreen
     00000008  ___bank_cursor_image               cursor_image
     00000008  ___bank_emote_shock                emote_shock
ASxxxx Linker V03.00/V05.40 + sdld,  page 10.
Hexadecimal  [32-Bits]

Area                                    Addr        Size        Decimal Bytes (Attributes)
--------------------------------        ----        ----        ------- ----- ------------
.  .ABS.                            00000000    00000000 =           0. bytes (ABS,CON)

      Value  Global                              Global Defined In Module
      -----  --------------------------------   ------------------------
     00000008  ___bank_scene_12                   scene_12
     00000008  ___bank_scene_12_p_hit1            scene_12_p_hit1
     00000008  ___bank_scene_12_projectiles       scene_12_projectiles
     00000008  ___bank_scene_12_sprites           scene_12_sprites
     00000008  ___bank_scene_12_triggers          scene_12_triggers
     00000008  ___bank_scene_15                   scene_15
     00000008  ___bank_scene_15_actors            scene_15_actors
     00000008  ___bank_scene_15_init              scene_15_init
     00000008  ___bank_scene_15_triggers          scene_15_triggers
     00000008  ___bank_scene_18                   scene_18
     00000008  ___bank_scene_18_sprites           scene_18_sprites
     00000008  ___bank_scene_18_triggers          scene_18_triggers
     00000008  ___bank_scene_19                   scene_19
     00000008  ___bank_scene_19_sprites           scene_19_sprites
     00000008  ___bank_scene_19_triggers          scene_19_triggers
     00000008  ___bank_scene_20                   scene_20
     00000008  ___bank_scene_20_init              scene_20_init
     00000008  ___bank_scene_20_sprites           scene_20_sprites
     00000008  ___bank_scene_20_triggers          scene_20_triggers
     00000008  ___bank_scene_9                    scene_9
     00000008  ___bank_scene_9_actors             scene_9_actors
     00000008  ___bank_scene_9_init               scene_9_init
     00000008  ___bank_scene_9_sprites            scene_9_sprites
     00000008  ___bank_scene_logo                 scene_logo
     00000008  ___bank_scene_title_screen         scene_title_screen
     00000008  ___bank_script_enemy_ship_destro   script_enemy_ship_destroy
     00000008  ___bank_script_enemy_ship_hit_pl   script_enemy_ship_hit_playe
     00000008  ___bank_script_init_weapons        script_init_weapons
     00000008  ___bank_script_input               script_input
     00000008  ___bank_sprite_bullet_left         sprite_bullet_left
     00000008  ___bank_sprite_bullet_right        sprite_bullet_right
     00000008  ___bank_sprite_cat                 sprite_cat
     00000008  ___bank_sprite_hidden_stairs       sprite_hidden_stairs
     00000008  ___bank_sprite_keyboard            sprite_keyboard
     00000008  ___bank_sprite_machine             sprite_machine
     00000008  ___bank_sprite_npc008              sprite_npc008
     00000008  ___bank_sprite_rock                sprite_rock
     00000008  ___bank_sprite_savepoint           sprite_savepoint
     00000008  ___bank_sprite_signpost            sprite_signpost
     00000008  ___bank_sprite_signpost_tileset    sprite_signpost_tileset
     00000008  ___bank_sprite_ui_weapon           sprite_ui_weapon
     00000008  ___bank_sprite_ui_weapon_tileset   sprite_ui_weapon_tileset
     00000008  ___bank_spritesheet_none           spritesheet_none
     00000008  ___bank_trigger_14_interact        trigger_14_interact
     00000008  ___bank_trigger_15_interact        trigger_15_interact
     00000008  ___bank_trigger_42_interact        trigger_42_interact
     00000008  ___bank_trigger_43_interact        trigger_43_interact
     00000008  ___bank_trigger_44_interact        trigger_44_interact
     00000008  ___bank_trigger_45_interact        trigger_45_interact
     00000008  ___bank_trigger_46_interact        trigger_46_interact
     00000008  ___mute_mask_sound_gbstudio_sfx_   sound_gbstudio_sfx_sav
ASxxxx Linker V03.00/V05.40 + sdld,  page 11.
Hexadecimal  [32-Bits]

Area                                    Addr        Size        Decimal Bytes (Attributes)
--------------------------------        ----        ----        ------- ----- ------------
.  .ABS.                            00000000    00000000 =           0. bytes (ABS,CON)

      Value  Global                              Global Defined In Module
      -----  --------------------------------   ------------------------
     00000008  ___mute_mask_sound_gbstudio_sfx_   sound_gbstudio_sfx_sav
     00000008  ___mute_mask_sound_legacy_0        sound_legacy_0
     00000008  b_input_init                       input
     00000008  b_logo_init                        logo
     00000008  b_logo_update                      logo
     00000008  b_parallax_init                    parallax
     00000008  b_remove_LCD_ISRs                  interrupts
     00000008  b_scroll_rect                      
     00000008  l__HEADER3                      
     0000000A  ___mute_mask_sound_gbstudio_sfx_   sound_gbstudio_sfx_sav
     0000000C  __start_save                    
     00000019  l__INITIALIZED                  
     00000019  l__INITIALIZER                  
     00000027  l__GSINIT                       
     00000030  l__HEADER7                      
     00000060  l__HEADER4                      
     000000AB  l__HEADER11                     
     000001CB  l__CRASH_SCRATCH2               
     00000200  s__CODE                         
     00000E9E  l__CODE_8                       
     00000EC5  l__CODE                         
     000010C5  s__HOME                         
     00001993  l__DATA                         
     00002000  _rROMB0                            
     00002D53  l__HOME                         
     00003000  _rROMB1                            
     00003E18  s__BASE                         
     00003E18  s__CODE_0                       
     00003E18  s__INITIALIZER                  
     00003E18  s__LIT                          
     00003E31  s__GSINIT                       
     00003E58  s__GSFINAL                      
     00003FFE  l__CODE_3                       
     00003FFF  l__CODE_1                       
     00004000  _RTC_SELECT_REG                    vm_rtc
     00004000  _rRAMB                             
     00004000  l__CODE_2                       
     00004000  l__CODE_4                       
     00004000  l__CODE_5                       
     00004000  l__CODE_6                       
     00004000  l__CODE_7                       
     00006000  _RTC_LATCH_REG                     vm_rtc
     00008000  __VRAM                             
     00008000  __VRAM8000                         
     00008800  __VRAM8800                         
     00009000  __VRAM9000                         
     00009800  __SCRN0                            
     00009C00  __SCRN1                            
     0000A000  _RTC_VALUE_REG                     vm_rtc
     0000A000  __SRAM                             
     0000C000  __RAM                              
ASxxxx Linker V03.00/V05.40 + sdld,  page 12.
Hexadecimal  [32-Bits]

Area                                    Addr        Size        Decimal Bytes (Attributes)
--------------------------------        ----        ----        ------- ----- ------------
.  .ABS.                            00000000    00000000 =           0. bytes (ABS,CON)

      Value  Global                              Global Defined In Module
      -----  --------------------------------   ------------------------
     0000C000  _shadow_OAM                     
     0000C0A0  s__DATA                         
     0000D000  __RAMBANK                          
     0000DA33  s__BSS                          
     0000DA33  s__INITIALIZED                  
     0000DA4C  s__HEAP                         
     0000DA4C  s__HEAP_END                     
     0000DF00  .STACK                          
     0000DF00  _shadow_OAM2                       absolute
     0000DFA0  _BkgPalette                        absolute
     0000DFE0  _vwf_tile_data                     absolute
     0000FE00  __OAMRAM                           
     0000FF00  _P1_REG                            
     0000FF00  __IO                               
     0000FF01  _SB_REG                            
     0000FF02  _SC_REG                            
     0000FF04  _DIV_REG                           
     0000FF05  _TIMA_REG                          
     0000FF06  _TMA_REG                           
     0000FF07  _TAC_REG                           
     0000FF0F  _IF_REG                            
     0000FF10  _NR10_REG                          
     0000FF11  _NR11_REG                          
     0000FF12  _NR12_REG                          
     0000FF13  _NR13_REG                          
     0000FF14  _NR14_REG                          
     0000FF16  _NR21_REG                          
     0000FF17  _NR22_REG                          
     0000FF18  _NR23_REG                          
     0000FF19  _NR24_REG                          
     0000FF1A  _NR30_REG                          
     0000FF1B  _NR31_REG                          
     0000FF1C  _NR32_REG                          
     0000FF1D  _NR33_REG                          
     0000FF1E  _NR34_REG                          
     0000FF20  _NR41_REG                          
     0000FF21  _NR42_REG                          
     0000FF22  _NR43_REG                          
     0000FF23  _NR44_REG                          
     0000FF24  _NR50_REG                          
     0000FF25  _NR51_REG                          
     0000FF26  _NR52_REG                          
     0000FF30  _AUD3WAVE                          
     0000FF30  _PCM_SAMPLE                        
     0000FF30  __AUD3WAVERAM                      
     0000FF40  _LCDC_REG                          
     0000FF41  _STAT_REG                          
     0000FF42  _SCY_REG                           
     0000FF43  _SCX_REG                           
     0000FF44  _LY_REG                            
     0000FF45  _LYC_REG                           
ASxxxx Linker V03.00/V05.40 + sdld,  page 13.
Hexadecimal  [32-Bits]

Area                                    Addr        Size        Decimal Bytes (Attributes)
--------------------------------        ----        ----        ------- ----- ------------
.  .ABS.                            00000000    00000000 =           0. bytes (ABS,CON)

      Value  Global                              Global Defined In Module
      -----  --------------------------------   ------------------------
     0000FF46  _DMA_REG                           
     0000FF47  _BGP_REG                           
     0000FF48  _OBP0_REG                          
     0000FF49  _OBP1_REG                          
     0000FF4A  _WY_REG                            
     0000FF4B  _WX_REG                            
     0000FF4D  _KEY1_REG                          
     0000FF4F  _VBK_REG                           
     0000FF51  _HDMA1_REG                         
     0000FF52  _HDMA2_REG                         
     0000FF53  _HDMA3_REG                         
     0000FF54  _HDMA4_REG                         
     0000FF55  _HDMA5_REG                         
     0000FF56  _RP_REG                            
     0000FF68  _BCPS_REG                          
     0000FF69  _BCPD_REG                          
     0000FF6A  _OCPS_REG                          
     0000FF6B  _OCPD_REG                          
     0000FF70  _SVBK_REG                          
     0000FF76  _PCM12_REG                         
     0000FF77  _PCM34_REG                         
     0000FF80  .refresh_OAM                    
     0000FF80  __HRAM                             
     0000FFFF  _IE_REG                            
     00014000  s__CODE_1                       
     00024000  s__CODE_2                       
     00034000  s__CODE_3                       
     00044000  s__CODE_4                       
     00054000  s__CODE_5                       
     00064000  s__CODE_6                       
     00074000  s__CODE_7                       
     00084000  s__CODE_8                       

ASxxxx Linker V03.00/V05.40 + sdld,  page 14.
Hexadecimal  [32-Bits]

Area                                    Addr        Size        Decimal Bytes (Attributes)
--------------------------------        ----        ----        ------- ----- ------------
_CODE                               00000200    00000EC5 =        3781. bytes (REL,CON)

      Value  Global                              Global Defined In Module
      -----  --------------------------------   ------------------------
     00000200  ___HandleCrash                     
     0000020A  _SIO_send_byte                     
     0000021D  _SIO_receive                       
     0000022E  _GetWinAddr                        
     00000236  _GetBkgAddr                        
     00000244  _state_init                        
     00000249  _state_update                      
     0000026B  _ui_time_masks                     
     00000273  _ui_print_shift_char               
     000002F6  _ui_draw_frame_row                 
     000002FF  .ui_draw_frame_row                 
     00000328  _script_cmds                       vm_instructions
     00000560  _save_signature                    game_signature
     00000564  _start_scene_x                     
     00000566  _start_scene_y                     
     00000568  _start_scene_dir                   
     00000569  _start_scene                       
     0000056C  _start_player_move_speed           
     0000056D  _start_player_anim_tick            
     0000056E  _ui_fonts                          
     00000571  _core_reset_hook                   main
     00000579  _main                              main
     00000581  _state_start_fns                   
     0000058D  _state_update_fns                  
     00000599  _hUGE_init                         hUGEDriver_obj
     0000059B  hUGE_init                          hUGEDriver_obj
     000005F1  _hUGE_mute_channel                 hUGEDriver_obj
     000005F3  hUGE_mute_channel                  hUGEDriver_obj
     00000841  _hUGE_set_position                 hUGEDriver_obj
     00000843  hUGE_set_position                  hUGEDriver_obj
     00000A08  _hUGE_dosound                      hUGEDriver_obj
     00000A08  hUGE_dosound                       hUGEDriver_obj
     00000D34  _get_vram_byte                     
     00000D3C  _get_win_tile_xy                   
     00000D44  _get_bkg_tile_xy                   
     00000D6B  _set_sprite_palette                CGB
     00000D70  _set_bkg_palette                   CGB
     00000D73  .set_palette                       CGB
     00000D92  _set_sprite_palette_entry          CGB
     00000D97  _set_bkg_palette_entry             CGB
     00000D9A  .set_palette_entry                 CGB
     00000DB6  _hide_sprites_range                Metasprites
     00000DE5  __mulsuchar                        mul
     00000DE8  __muluschar                        mul
     00000DF1  __mulschar                         mul
     00000DF9  __mulint                           mul
     00000E18  __muluchar                         mul
     00000E2A  _set_vram_byte                     
     00000E33  _set_win_tile_xy                   
     00000E3C  _set_bkg_tile_xy                   
ASxxxx Linker V03.00/V05.40 + sdld,  page 15.
Hexadecimal  [32-Bits]

Area                                    Addr        Size        Decimal Bytes (Attributes)
--------------------------------        ----        ----        ------- ----- ------------
_CODE                               00000200    00000EC5 =        3781. bytes (REL,CON)

      Value  Global                              Global Defined In Module
      -----  --------------------------------   ------------------------
     00000E6B  .sgb_check                         
     00000E6B  _sgb_check                         
     00000EB3  _sgb_transfer                      
     00000EB8  .sgb_transfer                      
     00000EF9  .copy_vram                         
     00000EFF  _get_data                          
     00000EFF  _set_data                          
     00000EFF  _vmemcpy                           
     00000F4D  ___move_metasprite                 Metasprites
     00000F8A  ___memcpy                          
     00000F8A  _memcpy                            
     00000FBC  _cpu_slow                          CGB
     00000FD7  _cpu_fast                          CGB
     00000FDE  __divsuchar                        divmod
     00000FE4  __modsuchar                        divmod
     00000FED  __divuschar                        divmod
     00000FF6  __moduschar                        divmod
     00001002  __divschar                         divmod
     00001007  __modschar                         divmod
     0000100E  __divsint                          divmod
     00001017  __modsint                          divmod
     00001023  __divuchar                         divmod
     00001028  __moduchar                         divmod
     0000102F  __divuint                          divmod
     00001038  __moduint                          divmod
     00001044  .div8                              divmod
     00001044  .mod8                              divmod
     0000104C  .div16                             divmod
     0000104C  .mod16                             divmod
     00001082  .divu8                             divmod
     00001082  .modu8                             divmod
     00001085  .divu16                            divmod
     00001085  .modu16                            divmod

ASxxxx Linker V03.00/V05.40 + sdld,  page 16.
Hexadecimal  [32-Bits]

Area                                    Addr        Size        Decimal Bytes (Attributes)
--------------------------------        ----        ----        ------- ----- ------------
_HEADER0                            00000000    00000001 =           1. bytes (ABS,CON)

      Value  Global                              Global Defined In Module
      -----  --------------------------------   ------------------------
     00000020  .call_hl                           Runtime

ASxxxx Linker V03.00/V05.40 + sdld,  page 17.
Hexadecimal  [32-Bits]

Area                                    Addr        Size        Decimal Bytes (Attributes)
--------------------------------        ----        ----        ------- ----- ------------
_HEADER1                            00000000    00000005 =           5. bytes (ABS,CON)

      Value  Global                              Global Defined In Module
      -----  --------------------------------   ------------------------
     00000028  .MemsetSmall                       Runtime

ASxxxx Linker V03.00/V05.40 + sdld,  page 18.
Hexadecimal  [32-Bits]

Area                                    Addr        Size        Decimal Bytes (Attributes)
--------------------------------        ----        ----        ------- ----- ------------
_HEADER2                            00000000    00000007 =           7. bytes (ABS,CON)

      Value  Global                              Global Defined In Module
      -----  --------------------------------   ------------------------
     00000030  .MemcpySmall                       Runtime

ASxxxx Linker V03.00/V05.40 + sdld,  page 19.
Hexadecimal  [32-Bits]

Area                                    Addr        Size        Decimal Bytes (Attributes)
--------------------------------        ----        ----        ------- ----- ------------
_HEADER3                            00000000    00000008 =           8. bytes (ABS,CON)

      Value  Global                              Global Defined In Module
      -----  --------------------------------   ------------------------
ASxxxx Linker V03.00/V05.40 + sdld,  page 20.
Hexadecimal  [32-Bits]

Area                                    Addr        Size        Decimal Bytes (Attributes)
--------------------------------        ----        ----        ------- ----- ------------
_HEADER4                            00000000    00000060 =          96. bytes (ABS,CON)

      Value  Global                              Global Defined In Module
      -----  --------------------------------   ------------------------
     00000080  .int                               Runtime
     0000008F  _wait_int_handler                  Runtime
     0000009C  __standard_VBL_handler             Runtime
     000000AB  _refresh_OAM                       Runtime
     000000CC  _set_interrupts                    Runtime

ASxxxx Linker V03.00/V05.40 + sdld,  page 21.
Hexadecimal  [32-Bits]

Area                                    Addr        Size        Decimal Bytes (Attributes)
--------------------------------        ----        ----        ------- ----- ------------
_HEADER5                            00000000    00000001 =           1. bytes (ABS,CON)

      Value  Global                              Global Defined In Module
      -----  --------------------------------   ------------------------
ASxxxx Linker V03.00/V05.40 + sdld,  page 22.
Hexadecimal  [32-Bits]

Area                                    Addr        Size        Decimal Bytes (Attributes)
--------------------------------        ----        ----        ------- ----- ------------
_HEADER6                            00000000    00000002 =           2. bytes (ABS,CON)

      Value  Global                              Global Defined In Module
      -----  --------------------------------   ------------------------
ASxxxx Linker V03.00/V05.40 + sdld,  page 23.
Hexadecimal  [32-Bits]

Area                                    Addr        Size        Decimal Bytes (Attributes)
--------------------------------        ----        ----        ------- ----- ------------
_HEADER7                            00000000    00000030 =          48. bytes (ABS,CON)

      Value  Global                              Global Defined In Module
      -----  --------------------------------   ------------------------
ASxxxx Linker V03.00/V05.40 + sdld,  page 24.
Hexadecimal  [32-Bits]

Area                                    Addr        Size        Decimal Bytes (Attributes)
--------------------------------        ----        ----        ------- ----- ------------
_HEADER8                            00000000    00000006 =           6. bytes (ABS,CON)

      Value  Global                              Global Defined In Module
      -----  --------------------------------   ------------------------
ASxxxx Linker V03.00/V05.40 + sdld,  page 25.
Hexadecimal  [32-Bits]

Area                                    Addr        Size        Decimal Bytes (Attributes)
--------------------------------        ----        ----        ------- ----- ------------
_HEADER9                            00000000    00000003 =           3. bytes (ABS,CON)

      Value  Global                              Global Defined In Module
      -----  --------------------------------   ------------------------
ASxxxx Linker V03.00/V05.40 + sdld,  page 26.
Hexadecimal  [32-Bits]

Area                                    Addr        Size        Decimal Bytes (Attributes)
--------------------------------        ----        ----        ------- ----- ------------
_HEADERa                            00000000    00000001 =           1. bytes (ABS,CON)

      Value  Global                              Global Defined In Module
      -----  --------------------------------   ------------------------
ASxxxx Linker V03.00/V05.40 + sdld,  page 27.
Hexadecimal  [32-Bits]

Area                                    Addr        Size        Decimal Bytes (Attributes)
--------------------------------        ----        ----        ------- ----- ------------
_HEADERb                            00000000    00000001 =           1. bytes (ABS,CON)

      Value  Global                              Global Defined In Module
      -----  --------------------------------   ------------------------
ASxxxx Linker V03.00/V05.40 + sdld,  page 28.
Hexadecimal  [32-Bits]

Area                                    Addr        Size        Decimal Bytes (Attributes)
--------------------------------        ----        ----        ------- ----- ------------
_HEADERc                            00000000    00000001 =           1. bytes (ABS,CON)

      Value  Global                              Global Defined In Module
      -----  --------------------------------   ------------------------
ASxxxx Linker V03.00/V05.40 + sdld,  page 29.
Hexadecimal  [32-Bits]

Area                                    Addr        Size        Decimal Bytes (Attributes)
--------------------------------        ----        ----        ------- ----- ------------
_HEADERd                            00000000    00000002 =           2. bytes (ABS,CON)

      Value  Global                              Global Defined In Module
      -----  --------------------------------   ------------------------
ASxxxx Linker V03.00/V05.40 + sdld,  page 30.
Hexadecimal  [32-Bits]

Area                                    Addr        Size        Decimal Bytes (Attributes)
--------------------------------        ----        ----        ------- ----- ------------
_HEADERe                            00000000    00000001 =           1. bytes (ABS,CON)

      Value  Global                              Global Defined In Module
      -----  --------------------------------   ------------------------
ASxxxx Linker V03.00/V05.40 + sdld,  page 31.
Hexadecimal  [32-Bits]

Area                                    Addr        Size        Decimal Bytes (Attributes)
--------------------------------        ----        ----        ------- ----- ------------
_HEADERf                            00000000    00000001 =           1. bytes (ABS,CON)

      Value  Global                              Global Defined In Module
      -----  --------------------------------   ------------------------
ASxxxx Linker V03.00/V05.40 + sdld,  page 32.
Hexadecimal  [32-Bits]

Area                                    Addr        Size        Decimal Bytes (Attributes)
--------------------------------        ----        ----        ------- ----- ------------
_HEADER10                           00000000    00000002 =           2. bytes (ABS,CON)

      Value  Global                              Global Defined In Module
      -----  --------------------------------   ------------------------
ASxxxx Linker V03.00/V05.40 + sdld,  page 33.
Hexadecimal  [32-Bits]

Area                                    Addr        Size        Decimal Bytes (Attributes)
--------------------------------        ----        ----        ------- ----- ------------
_HEADER11                           00000000    000000AB =         171. bytes (ABS,CON)

      Value  Global                              Global Defined In Module
      -----  --------------------------------   ------------------------
     00000150  .reset                             Runtime
     00000150  _reset                             Runtime
     00000157  .code_start                        Runtime
     000001B9  _exit                              Runtime
     000001BD  .wait_vbl_done                     Runtime
     000001BD  _vsync                             Runtime
     000001BD  _wait_vbl_done                     Runtime
     000001CD  .remove_VBL                        Runtime
     000001CD  _remove_VBL                        Runtime
     000001D0  .remove_int                        Runtime
     000001ED  .add_VBL                           Runtime
     000001ED  _add_VBL                           Runtime
     000001F0  .add_int                           Runtime

ASxxxx Linker V03.00/V05.40 + sdld,  page 34.
Hexadecimal  [32-Bits]

Area                                    Addr        Size        Decimal Bytes (Attributes)
--------------------------------        ----        ----        ------- ----- ------------
_HOME                               000010C5    00002D53 =       11603. bytes (REL,CON)

      Value  Global                              Global Defined In Module
      -----  --------------------------------   ------------------------
     000010C5  .memset_simple                     Runtime
     000010CE  .memcpy_simple                     Runtime
     000010EB  .display_off                       Runtime
     000010EB  _display_off                       Runtime
     00001103  _actors_update                     actor
     00001569  _SetBankedBkgData                  bankdata
     00001585  _SetBankedSpriteData               bankdata
     000015A1  _SetBankedBkgTiles                 bankdata
     000015BD  _SetBankedWinTiles                 bankdata
     000015D9  _ReadBankedFarPtr                  bankdata
     000015FB  _ReadBankedUWORD                   bankdata
     00001615  _MemcpyBanked                      bankdata
     00001637  _MemcpyVRAMBanked                  bankdata
     00001666  _IndexOfFarPtr                     bankdata
     000016EB  _camera_update                     camera
     0000181E  _load_animations                   data_manager
     00001877  _events_update                     events
     0000194A  _timers_update                     events
     000019D3  _input_update                      input
     000019F6  .sio_ISR                           
     00001A50  .timer_ISR                         
     00001A65  _simple_LCD_isr                    interrupts
     00001AE4  _fullscreen_LCD_isr                interrupts
     00001B10  _VBL_isr                           interrupts
     00001B5A  _isqrt                             math
     00001BB7  _sine_wave                         math
     00001CB7  _dir_lookup                        math
     00001CBF  _dir_angle_lookup                  math
     00001CC3  _hUGETrackerRoutine                music_manager
     00001CEA  _music_events_update               music_manager
     00001D6C  _music_play_isr                    music_manager
     00001E0D  _parallax_LCD_isr                  parallax
     00001E4A  _projectiles_update                projectiles
     000022CB  _projectiles_render                projectiles
     00002420  _scroll_load_pending_row           scroll
     000024A6  _scroll_load_row                   scroll
     0000251B  _scroll_load_col                   scroll
     00002584  _scroll_load_pending_col           scroll
     0000260C  _set_bkg_submap                    
     0000264F  _set_xy_win_submap                 
     0000267C  .set_xy_win_submap                 
     00002685  .set_xy_bkg_submap                 
     00002694  .set_xy_submap                     
     000026E0  _sfx_play_isr                      sfx_player
     000027B9  _on_SIO_receive                    sio
     000027FA  _SIO_update                        sio
     00002861  _ui_update                         ui
     00002999  _vm_sgb_transfer                   vm_sgb
     000029E6  _vm_load_text                      vm_ui
     00002C3C  _vm_switch                         vm
ASxxxx Linker V03.00/V05.40 + sdld,  page 35.
Hexadecimal  [32-Bits]

Area                                    Addr        Size        Decimal Bytes (Attributes)
--------------------------------        ----        ----        ------- ----- ------------
_HOME                               000010C5    00002D53 =       11603. bytes (REL,CON)

      Value  Global                              Global Defined In Module
      -----  --------------------------------   ------------------------
     00002D6D  _vm_beginthread                    vm
     00002E91  _vm_rpn                            vm
     000038A9  _vm_get_far                        vm
     00003917  _vm_call_native                    vm
     0000392A  _VM_STEP                           vm
     00003994  _script_runner_update              vm
     00003AF9  _fill_win_rect                     
     00003B0B  _rand                              
     00003B0B  _randw                             
     00003B36  _initrand                          
     00003B38  .initrand                          
     00003B41  _get_bkg_data                      
     00003B41  _get_win_data                      
     00003B8E  _get_sprite_data                   
     00003BC1  _abs                               abs
     00003BCE  _set_win_tiles                     
     00003BE2  _set_tile_data                     
     00003BE7  _set_bkg_data                      
     00003BE7  _set_win_data                      
     00003BEF  _set_sprite_data                   
     00003C1F  _reverse                           reverse
     00003C53  ___call__banked                    far_ptr
     00003C70  _to_far_ptr                        far_ptr
     00003CA6  .add_LCD                           
     00003CA6  _add_LCD                           
     00003CAC  .remove_LCD                        
     00003CAC  _remove_LCD                        
     00003CB2  .fill_rect_wtt                     
     00003CBB  .fill_rect_btt                     
     00003D08  _fill_bkg_rect                     
     00003D1A  .padup                             
     00003D1A  _waitpadup                         
     00003D2A  .jpad                              
     00003D2A  _joypad                            
     00003D52  _waitpad                           
     00003D53  .wait_pad                          
     00003D5A  ___sdcc_call_hl                    call_hl
     00003D5B  _memset                            memset
     00003D8E  .set_xy_wtt                        SetTileMap
     00003D97  .set_xy_btt                        SetTileMap
     00003DA6  .set_xy_tt                         SetTileMap
     00003DEA  ___sdcc_bcall_ehl                  
     00003E04  _set_bkg_tiles                     
ASxxxx Linker V03.00/V05.40 + sdld,  page 36.
Hexadecimal  [32-Bits]

Area                                    Addr        Size        Decimal Bytes (Attributes)
--------------------------------        ----        ----        ------- ----- ------------
_INITIALIZER                        00003E18    00000019 =          25. bytes (REL,CON)

      Value  Global                              Global Defined In Module
      -----  --------------------------------   ------------------------
ASxxxx Linker V03.00/V05.40 + sdld,  page 37.
Hexadecimal  [32-Bits]

Area                                    Addr        Size        Decimal Bytes (Attributes)
--------------------------------        ----        ----        ------- ----- ------------
_GSINIT                             00003E31    00000027 =          39. bytes (REL,CON)

      Value  Global                              Global Defined In Module
      -----  --------------------------------   ------------------------
     00003E31  gsinit                             Runtime

ASxxxx Linker V03.00/V05.40 + sdld,  page 38.
Hexadecimal  [32-Bits]

Area                                    Addr        Size        Decimal Bytes (Attributes)
--------------------------------        ----        ----        ------- ----- ------------
_GSFINAL                            00003E58    00000001 =           1. bytes (REL,CON)

      Value  Global                              Global Defined In Module
      -----  --------------------------------   ------------------------
ASxxxx Linker V03.00/V05.40 + sdld,  page 39.
Hexadecimal  [32-Bits]

Area                                    Addr        Size        Decimal Bytes (Attributes)
--------------------------------        ----        ----        ------- ----- ------------
_DATA                               0000C0A0    00001993 =        6547. bytes (REL,CON)

      Value  Global                              Global Defined In Module
      -----  --------------------------------   ------------------------
     0000C0A0  __cpu                              Runtime
     0000C0A1  __is_GBA                           Runtime
     0000C0A2  .mode                              Runtime
     0000C0A3  .sys_time                          Runtime
     0000C0A3  _sys_time                          Runtime
     0000C0A5  .int_0x40                          Runtime
     0000C0B1  _actors                            actor
     0000C4F5  _actors_active_head                actor
     0000C4F7  _actors_active_tail                actor
     0000C4F9  _actors_inactive_head              actor
     0000C4FB  _screen_x                          actor
     0000C4FC  _screen_y                          actor
     0000C4FD  _invalid                           actor
     0000C4FF  _player_moving                     actor
     0000C500  _player_iframes                    actor
     0000C501  _player_collision_actor            actor
     0000C503  _emote_actor                       actor
     0000C505  _emote_timer                       actor
     0000C506  _allocated_sprite_tiles            actor
     0000C507  _allocated_hardware_sprites        actor
     0000C514  _camera_x                          camera
     0000C516  _camera_y                          camera
     0000C518  _camera_offset_x                   camera
     0000C519  _camera_offset_y                   camera
     0000C51A  _camera_deadzone_x                 camera
     0000C51B  _camera_deadzone_y                 camera
     0000C51C  _camera_settings                   camera
     0000C520  _current_scene                     data_manager
     0000C523  _image_bank                        data_manager
     0000C524  _image_ptr                         data_manager
     0000C526  _image_attr_bank                   data_manager
     0000C527  _image_attr_ptr                    data_manager
     0000C529  _collision_bank                    data_manager
     0000C52A  _collision_ptr                     data_manager
     0000C52C  _image_tile_width                  data_manager
     0000C52D  _image_tile_height                 data_manager
     0000C52E  _image_width                       data_manager
     0000C530  _image_height                      data_manager
     0000C532  _sprites_len                       data_manager
     0000C533  _actors_len                        data_manager
     0000C534  _projectiles_len                   data_manager
     0000C535  _player_sprite_len                 data_manager
     0000C536  _scene_type                        data_manager
     0000C537  _scene_LCD_type                    data_manager
     0000C538  _scene_stack                       data_manager
     0000C578  _scene_stack_ptr                   data_manager
     0000C57A  _scene_sprites_base_tiles          data_manager
     0000C5BA  _input_events                      events
     0000C5E2  _input_slots                       events
     0000C5EA  _timer_events                      events
ASxxxx Linker V03.00/V05.40 + sdld,  page 40.
Hexadecimal  [32-Bits]

Area                                    Addr        Size        Decimal Bytes (Attributes)
--------------------------------        ----        ----        ------- ----- ------------
_DATA                               0000C0A0    00001993 =        6547. bytes (REL,CON)

      Value  Global                              Global Defined In Module
      -----  --------------------------------   ------------------------
     0000C5FE  _timer_values                      events
     0000C606  _fade_running                      fade_manager
     0000C607  _fade_frames_per_step              fade_manager
     0000C608  _fade_timer                        fade_manager
     0000C610  _joypads                           input
     0000C615  _frame_joy                         input
     0000C616  _last_joy                          input
     0000C617  _recent_joy                        input
     0000C618  _SIO_status                        
     0000C619  _link_byte_sent                    
     0000C61A  _link_next_mode                    
     0000C61B  _save_blob_size                    load_save
     0000C61D  _routine_queue                     music_manager
     0000C621  _routine_queue_head                music_manager
     0000C622  _routine_queue_tail                music_manager
     0000C623  _music_events                      music_manager
     0000C637  _music_current_track_bank          music_manager
     0000C638  _music_mute_mask                   music_manager
     0000C639  _music_effective_mute              music_manager
     0000C63A  _music_next_track                  music_manager
     0000C63C  _music_current_track               music_manager
     0000C63E  _music_play_isr_counter            music_manager
     0000C63F  _music_play_isr_pause              music_manager
     0000C640  _music_global_mute_mask            music_manager
     0000C641  _music_sfx_priority                music_manager
     0000C642  _DMG_palette                       palette
     0000C645  _SprPalette                        palette
     0000C685  _parallax_rows                     parallax
     0000C697  _parallax_row                      parallax
     0000C699  _projectiles                       projectiles
     0000C752  _projectile_defs                   projectiles
     0000C7C5  _projectiles_active_head           projectiles
     0000C7C7  _projectiles_inactive_head         projectiles
     0000C7CE  _scroll_x                          scroll
     0000C7D0  _scroll_y                          scroll
     0000C7D2  _draw_scroll_x                     scroll
     0000C7D4  _draw_scroll_y                     scroll
     0000C7D6  _scroll_x_max                      scroll
     0000C7D8  _scroll_y_max                      scroll
     0000C7DA  _scroll_offset_x                   scroll
     0000C7DB  _scroll_offset_y                   scroll
     0000C7DC  _pending_h_x                       scroll
     0000C7DD  _pending_h_y                       scroll
     0000C7DE  _pending_h_i                       scroll
     0000C7DF  _pending_w_x                       scroll
     0000C7E0  _pending_w_y                       scroll
     0000C7E1  _pending_w_i                       scroll
     0000C7E2  _current_row                       scroll
     0000C7E4  _new_row                           scroll
     0000C7E6  _current_col                       scroll
     0000C7E8  _new_col                           scroll
ASxxxx Linker V03.00/V05.40 + sdld,  page 41.
Hexadecimal  [32-Bits]

Area                                    Addr        Size        Decimal Bytes (Attributes)
--------------------------------        ----        ----        ------- ----- ------------
_DATA                               0000C0A0    00001993 =        6547. bytes (REL,CON)

      Value  Global                              Global Defined In Module
      -----  --------------------------------   ------------------------
     0000C7EA  .image_tile_width                  
     0000C7EB  _sfx_play_bank                     sfx_player
     0000C7EC  _sfx_play_sample                   sfx_player
     0000C7EE  _sfx_frame_skip                    sfx_player
     0000C7EF  _link_operation_mode               sio
     0000C7F0  _link_packet                       sio
     0000C810  _link_packet_len                   sio
     0000C811  _link_packet_ptr                   sio
     0000C813  _link_packet_received              sio
     0000C814  _link_packet_snd_len               sio
     0000C815  _link_packet_snd_ptr               sio
     0000C817  _link_packet_sent                  sio
     0000C818  __is_CGB                           system
     0000C819  __is_SGB                           system
     0000C81A  __current_ram_bank                 system
     0000C81B  _triggers                          trigger
     0000C913  _last_trigger_tx                   trigger
     0000C914  _last_trigger_ty                   trigger
     0000C915  _last_trigger                      trigger
     0000C916  _win_pos_x                         ui
     0000C917  _win_dest_pos_x                    ui
     0000C918  _win_pos_y                         ui
     0000C919  _win_dest_pos_y                    ui
     0000C91A  _win_speed                         ui
     0000C91B  _text_drawn                        ui
     0000C91C  _current_text_speed                ui
     0000C91D  _text_options                      ui
     0000C91E  _text_in_speed                     ui
     0000C91F  _text_out_speed                    ui
     0000C920  _text_draw_speed                   ui
     0000C921  _text_ff_joypad                    ui
     0000C922  _text_ff                           ui
     0000C923  _text_bkg_fill                     ui
     0000C924  _ui_text_data                      ui
     0000CA2E  _vwf_current_mask                  ui
     0000CA2F  _vwf_current_rotate                ui
     0000CA30  _vwf_inverse_map                   ui
     0000CA31  _vwf_direction                     ui
     0000CA32  _vwf_current_font_desc             ui
     0000CA3A  _vwf_current_font_bank             ui
     0000CA3B  _vwf_current_font_idx              ui
     0000CA3C  _text_render_base_addr             ui
     0000CA3E  _text_scroll_addr                  ui
     0000CA40  _text_scroll_width                 ui
     0000CA41  _text_scroll_height                ui
     0000CA42  _text_scroll_fill                  ui
     0000CA43  _text_sound_mask                   ui
     0000CA44  _text_sound_bank                   ui
     0000CA45  _text_sound_data                   ui
     0000CA47  _overlay_priority                  ui
     0000CA48  _text_palette                      ui
ASxxxx Linker V03.00/V05.40 + sdld,  page 42.
Hexadecimal  [32-Bits]

Area                                    Addr        Size        Decimal Bytes (Attributes)
--------------------------------        ----        ----        ------- ----- ------------
_DATA                               0000C0A0    00001993 =        6547. bytes (REL,CON)

      Value  Global                              Global Defined In Module
      -----  --------------------------------   ------------------------
     0000CA4F  __itoa_fmt_len                     vm_ui_a
     0000CA50  .itoa_fmt_buf                      vm_ui_a
     0000CA53  _CTXS                              vm
     0000CB83  _first_ctx                         vm
     0000CB85  _free_ctxs                         vm
     0000CB87  _old_executing_ctx                 vm
     0000CB89  _executing_ctx                     vm
     0000CB8B  _vm_lock_state                     vm
     0000CB8C  _vm_loaded_state                   vm
     0000CB8D  _vm_exception_code                 vm
     0000CB8E  _vm_exception_params_length        vm
     0000CB8F  _vm_exception_params_bank          vm
     0000CB90  _vm_exception_params_offset        vm
     0000CB94  _script_memory                     vm
     0000D99A  _grounded                          platform
     0000D99B  _on_slope                          platform
     0000D99C  _slope_y                           platform
     0000D99D  _on_ladder                         platform
     0000D99E  _pl_vel_x                          platform
     0000D9A0  _pl_vel_y                          platform
     0000D9A2  _plat_min_vel                      platform
     0000D9A4  _plat_walk_vel                     platform
     0000D9A6  _plat_climb_vel                    platform
     0000D9A8  _plat_run_vel                      platform
     0000D9AA  _plat_walk_acc                     platform
     0000D9AC  _plat_run_acc                      platform
     0000D9AE  _plat_dec                          platform
     0000D9B0  _plat_jump_vel                     platform
     0000D9B2  _plat_grav                         platform
     0000D9B4  _plat_hold_grav                    platform
     0000D9B6  _plat_max_fall_vel                 platform
     0000D9B8  _shooter_reached_end               shmup
     0000D9B9  _shooter_dest                      shmup
     0000D9BB  _shooter_direction                 shmup
     0000D9BC  _topdown_grid                      topdown
     0000D9BD  ___rand_seed                       
     0000D9DB  _hUGE_current_wave                 hUGEDriver_obj
     0000D9DB  hUGE_current_wave                  hUGEDriver_obj
     0000D9DC  _hUGE_mute_mask                    hUGEDriver_obj
     0000DA23  ___call_banked_addr                far_ptr
     0000DA23  ___call_banked_ptr                 far_ptr
     0000DA25  ___call_banked_bank                far_ptr
     0000DA27  .int_0x48                          
     0000DA2F  ___current_metasprite              Metasprites
     0000DA31  ___current_base_tile               Metasprites
     0000DA32  ___current_base_prop               Metasprites
ASxxxx Linker V03.00/V05.40 + sdld,  page 43.
Hexadecimal  [32-Bits]

Area                                    Addr        Size        Decimal Bytes (Attributes)
--------------------------------        ----        ----        ------- ----- ------------
_INITIALIZED                        0000DA33    00000019 =          25. bytes (REL,CON)

      Value  Global                              Global Defined In Module
      -----  --------------------------------   ------------------------
     0000DA33  _fade_style                        fade_manager
     0000DA34  _game_time                         game_time
     0000DA35  _PRN_PKT_START                     gbprinter
     0000DA43  _hide_sprites                      interrupts
     0000DA44  _show_actors_on_overlay            interrupts
     0000DA45  _overlay_cut_scanline              interrupts
     0000DA46  __submap_tile_offset               
     0000DA47  _triggers_len                      trigger
     0000DA48  _exchange_state                    vm_sio
     0000DA49  _shooter_scroll_speed              shmup
     0000DA4A  ___render_shadow_OAM               Metasprites
     0000DA4B  __map_tile_offset                  SetTileMap
ASxxxx Linker V03.00/V05.40 + sdld,  page 44.
Hexadecimal  [32-Bits]

Area                                    Addr        Size        Decimal Bytes (Attributes)
--------------------------------        ----        ----        ------- ----- ------------
_HRAM12                             00000000    00000003 =           3. bytes (ABS,CON)

      Value  Global                              Global Defined In Module
      -----  --------------------------------   ------------------------
     0000FF90  __current_bank                     Runtime
     0000FF92  __shadow_OAM_base                  Runtime

ASxxxx Linker V03.00/V05.40 + sdld,  page 45.
Hexadecimal  [32-Bits]

Area                                    Addr        Size        Decimal Bytes (Attributes)
--------------------------------        ----        ----        ------- ----- ------------
_CODE_1                             00014000    00003FFF =       16383. bytes (REL,CON)

      Value  Global                              Global Defined In Module
      -----  --------------------------------   ------------------------
     00014000  ___func_ACTOR                      actor
     00014000  _actors_init                       actor
     0001403A  _emote_offsets                     actor
     00014049  _emote_metasprite                  actor
     00014055  _player_init                       actor
     0001407B  _deactivate_actor                  actor
     000141DC  _activate_actor                    actor
     0001431B  _activate_actors_in_row            actor
     00014412  _activate_actors_in_col            actor
     00014563  _actor_set_frames                  actor
     000145B9  _actor_set_frame_offset            actor
     000145F4  _actor_get_frame_offset            actor
     00014606  _actor_set_anim_idle               actor
     00014634  _actor_set_anim_moving             actor
     00014665  _actor_set_dir                     actor
     000146CA  _actor_at_tile                     actor
     0001479E  _actor_in_front_of_player          actor
     00014852  _actor_overlapping_player          actor
     00014A61  _actor_overlapping_bb              actor
     00014CDF  _actors_handle_player_collision    actor
     00014D6B  _check_collision_in_direction      actor
     00015589  _scroll_init                       scroll
     000155B3  _scroll_reset                      scroll
     000155D3  _scroll_update                     scroll
     0001570A  _scroll_viewport                   scroll
     00015BA3  _scroll_repaint                    scroll
     00015BB3  _scroll_render_rows                scroll
     00015C49  _scroll_queue_row                  scroll
     00015C6B  _scroll_queue_col                  scroll
     00015CB6  _SIO_init                          sio
     00015CDF  _ui_swap_tiles                     
     00015D29  _ui_print_make_mask_lr             
     00015D45  _ui_print_make_mask_rl             
     00015D61  _ui_init                           ui
     00015E32  _ui_load_tiles                     ui
     00015E89  _ui_draw_frame                     ui
     00015F23  _ui_print_reset                    ui
     00015F74  _ui_set_start_tile                 ui
     00015FA0  _ui_print_render                   ui
     00016236  _ui_draw_text_buffer_char          ui
     00016720  _ui_run_menu                       ui
     000168F7  _ui_run_modal                      ui
     000169B1  ___func_VM_SGB                     vm_sgb
     000169B1  _platform_init                     platform
     00016B2B  _platform_update                   platform
ASxxxx Linker V03.00/V05.40 + sdld,  page 46.
Hexadecimal  [32-Bits]

Area                                    Addr        Size        Decimal Bytes (Attributes)
--------------------------------        ----        ----        ------- ----- ------------
_CODE_2                             00024000    00004000 =       16384. bytes (REL,CON)

      Value  Global                              Global Defined In Module
      -----  --------------------------------   ------------------------
     00024000  _bootstrap_script                  
     0002400B  ___func_VM_ACTOR                   vm_actor
     0002400B  _vm_actor_move_to                  vm_actor
     00024A51  _vm_actor_move_cancel              vm_actor
     00024A87  _vm_actor_activate                 vm_actor
     00024AD8  _vm_actor_deactivate               vm_actor
     00024B29  _vm_actor_begin_update             vm_actor
     00024BB0  _vm_actor_terminate_update         vm_actor
     00024BF7  _vm_actor_set_dir                  vm_actor
     00024C40  _vm_actor_set_anim                 vm_actor
     00024CCE  _vm_actor_set_pos                  vm_actor
     00024D48  _vm_actor_get_pos                  vm_actor
     00024DB7  _vm_actor_get_dir                  vm_actor
     00024E31  _vm_actor_get_angle                vm_actor
     00024EB2  _vm_actor_emote                    vm_actor
     00024F76  _vm_actor_set_bounds               vm_actor
     00024FD4  _vm_actor_set_spritesheet          vm_actor
     0002509E  _vm_actor_replace_tile             vm_actor
     00025109  _vm_actor_set_anim_tick            vm_actor
     00025147  _vm_actor_set_move_speed           vm_actor
     00025185  _vm_actor_set_anim_frame           vm_actor
     000251C9  _vm_actor_get_anim_frame           vm_actor
     00025213  _vm_actor_set_anim_set             vm_actor
     0002529B  _vm_actor_set_spritesheet_by_ref   vm_actor
     000253A8  _vm_actor_set_flags                vm_actor
     00025456  ___func_bg_leaving_earth_tilemap   bg_leaving_earth_tilemap_att
     00025456  _bg_leaving_earth_tilemap_attr     bg_leaving_earth_tilemap_att
     00026644  ___func_bg_stars_tileset           bg_stars_tileset
     00026644  _bg_stars_tileset                  bg_stars_tileset
     00027925  _song_rulz_lightmood_0_Data        song_rulz_lightmood_0_Data
     0002793A  _topdown_init                      topdown
     000279D6  _topdown_update                    topdown

ASxxxx Linker V03.00/V05.40 + sdld,  page 47.
Hexadecimal  [32-Bits]

Area                                    Addr        Size        Decimal Bytes (Attributes)
--------------------------------        ----        ----        ------- ----- ------------
_CODE_6                             00064000    00004000 =       16384. bytes (REL,CON)

      Value  Global                              Global Defined In Module
      -----  --------------------------------   ------------------------
     00064000  _camera_init                       camera
     00064026  _core_reset                        core
     0006409B  _process_VM                        core
     00064319  _core_run                          core
     000643F5  ___HandleCrash_banked              
     0006475D  _CGBFadeToWhiteStep                fade_manager
     00064796  _CGBFadeToBlackStep                fade_manager
     000647D1  _ApplyPaletteChangeColor           fade_manager
     0006480E  _fade_speeds                       fade_manager
     00064815  _DMGFadeToWhiteStep                fade_manager
     00064836  _DMGFadeToBlackStep                fade_manager
     00064859  _ApplyPaletteChangeDMG             fade_manager
     000648AF  _fade_init                         fade_manager
     000648D0  _fade_in                           fade_manager
     00064908  _fade_out                          fade_manager
     00064941  _fade_update                       fade_manager
     00064994  _fade_applypalettechange           fade_manager
     000649A6  _fade_setspeed                     fade_manager
     000649B6  _fade_in_modal                     fade_manager
     000649D0  _fade_out_modal                    fade_manager
     000649EA  _printer_send_receive              gbprinter
     00064A20  _printer_send_byte                 gbprinter
     00064A33  _printer_send_command              gbprinter
     00064A56  _printer_print_tile                gbprinter
     00064AE7  _printer_wait                      gbprinter
     00064B19  _gbprinter_detect                  gbprinter
     00064B33  _gbprinter_print_overlay           gbprinter
     00064D00  _data_init                         load_save
     00064D4B  _save_points                       load_save
     00064DAB  _data_slot_address                 load_save
     00064E23  _data_save                         load_save
     00064EE4  _data_load                         load_save
     00064FF8  _data_clear                        load_save
     00065025  _data_peek                         load_save
     000650C6  _atan2                             math_atan2
     0006525F  _atan2_table                       math_atan2
     000653C7  _set_sgb_border                    sgb_border
     000655B1  _trigger_reset                     trigger
     000655C1  _trigger_interact                  trigger
     00065600  _trigger_activate_at               trigger
     0006564B  _trigger_at_intersection           trigger
     00065772  _trigger_activate_at_intersectio   trigger
     000658B3  _trigger_at_tile                   trigger
     00065944  ___func_VM_CAMERA                  vm_camera
     00065944  _vm_camera_move_to                 vm_camera
     00065B97  _vm_camera_set_pos                 vm_camera
     00065BDE  _camera_shake_frames               vm_camera
     00065D0D  ___func_VM_PALETTE                 vm_palette
     00065D0D  _vm_load_palette                   vm_palette
     00065EB6  ___func_VM_SIO                     vm_sio
ASxxxx Linker V03.00/V05.40 + sdld,  page 48.
Hexadecimal  [32-Bits]

Area                                    Addr        Size        Decimal Bytes (Attributes)
--------------------------------        ----        ----        ------- ----- ------------
_CODE_6                             00064000    00004000 =       16384. bytes (REL,CON)

      Value  Global                              Global Defined In Module
      -----  --------------------------------   ------------------------
     00065EB6  _vm_sio_set_mode                   vm_sio
     00065EC8  _vm_sio_exchange                   vm_sio
     000661AA  ___func_bg_house_wide_tilemap_at   bg_house_wide_tilemap_attr
     000661AA  _bg_house_wide_tilemap_attr        bg_house_wide_tilemap_attr
     000663EA  ___func_bg_house_wide_tilemap      bg_house_wide_tilemap
     000663EA  _bg_house_wide_tilemap             bg_house_wide_tilemap
     0006662A  ___func_bg_leaving_earth_tileset   bg_leaving_earth_tileset
     0006662A  _bg_leaving_earth_tileset          bg_leaving_earth_tileset
     000668EC  ___func_bg_stars_tilemap_attr      bg_stars_tilemap_attr
     000668EC  _bg_stars_tilemap_attr             bg_stars_tilemap_attr
     00066CEC  ___func_bg_stars_tilemap           bg_stars_tilemap
     00066CEC  _bg_stars_tilemap                  bg_stars_tilemap
     000670EC  ___func_scene_15_sprites           scene_15_sprites
     000670EC  _scene_15_sprites                  scene_15_sprites
     000670EF  ___func_scene_20_actors            scene_20_actors
     000670EF  _scene_20_actors                   scene_20_actors
     000672C3  ___func_scene_20_collisions        scene_20_collisions
     000672C3  _scene_20_collisions               scene_20_collisions
     00067503  ___func_scene_9_collisions         scene_9_collisions
     00067503  _scene_9_collisions                scene_9_collisions
     00067903  ___func_sound_gbstudio_sfx_sav_0   sound_gbstudio_sfx_sav
     00067903  ___func_sound_gbstudio_sfx_sav_0   sound_gbstudio_sfx_sav
     00067903  ___func_sound_gbstudio_sfx_sav_0   sound_gbstudio_sfx_sav
     00067903  ___func_sound_gbstudio_sfx_sav_0   sound_gbstudio_sfx_sav
     00067903  ___func_sound_gbstudio_sfx_sav_0   sound_gbstudio_sfx_sav
     00067903  ___func_sound_gbstudio_sfx_sav_0   sound_gbstudio_sfx_sav
     00067903  ___func_sound_gbstudio_sfx_sav_0   sound_gbstudio_sfx_sav
     00067903  ___func_sound_gbstudio_sfx_sav_0   sound_gbstudio_sfx_sav
     00067903  ___func_sound_gbstudio_sfx_sav_0   sound_gbstudio_sfx_sav
     00067903  ___func_sound_gbstudio_sfx_sav_0   sound_gbstudio_sfx_sav
     00067903  _sound_gbstudio_sfx_sav_00         sound_gbstudio_sfx_sav
     00067988  _sound_gbstudio_sfx_sav_01         sound_gbstudio_sfx_sav
     000679DD  _sound_gbstudio_sfx_sav_02         sound_gbstudio_sfx_sav
     00067A14  _sound_gbstudio_sfx_sav_03         sound_gbstudio_sfx_sav
     00067A43  _sound_gbstudio_sfx_sav_04         sound_gbstudio_sfx_sav
     00067AA5  _sound_gbstudio_sfx_sav_05         sound_gbstudio_sfx_sav
     00067B14  _sound_gbstudio_sfx_sav_06         sound_gbstudio_sfx_sav
     00067B71  _sound_gbstudio_sfx_sav_07         sound_gbstudio_sfx_sav
     00067BA7  _sound_gbstudio_sfx_sav_08         sound_gbstudio_sfx_sav
     00067BFA  _sound_gbstudio_sfx_sav_09         sound_gbstudio_sfx_sav
     00067C5C  ___func_sprite_npc004_tileset      sprite_npc004_tileset
     00067C5C  _sprite_npc004_tileset             sprite_npc004_tileset
     00067DDE  ___func_sprite_player_platform_t   sprite_player_platform_tiles
     00067DDE  _sprite_player_platform_tileset    sprite_player_platform_tiles

ASxxxx Linker V03.00/V05.40 + sdld,  page 49.
Hexadecimal  [32-Bits]

Area                                    Addr        Size        Decimal Bytes (Attributes)
--------------------------------        ----        ----        ------- ----- ------------
_CRASH_HEADER0                      00000000    00000005 =           5. bytes (ABS,CON)

      Value  Global                              Global Defined In Module
      -----  --------------------------------   ------------------------
ASxxxx Linker V03.00/V05.40 + sdld,  page 50.
Hexadecimal  [32-Bits]

Area                                    Addr        Size        Decimal Bytes (Attributes)
--------------------------------        ----        ----        ------- ----- ------------
_CRASH_HEADER1                      00000000    00000004 =           4. bytes (ABS,CON)

      Value  Global                              Global Defined In Module
      -----  --------------------------------   ------------------------
ASxxxx Linker V03.00/V05.40 + sdld,  page 51.
Hexadecimal  [32-Bits]

Area                                    Addr        Size        Decimal Bytes (Attributes)
--------------------------------        ----        ----        ------- ----- ------------
_CRASH_SCRATCH2                     00000000    000001CB =         459. bytes (ABS,CON)

      Value  Global                              Global Defined In Module
      -----  --------------------------------   ------------------------
ASxxxx Linker V03.00/V05.40 + sdld,  page 52.
Hexadecimal  [32-Bits]

Area                                    Addr        Size        Decimal Bytes (Attributes)
--------------------------------        ----        ----        ------- ----- ------------
_CODE_4                             00044000    00004000 =       16384. bytes (REL,CON)

      Value  Global                              Global Defined In Module
      -----  --------------------------------   ------------------------
     00044000  _load_init                         data_manager
     00044013  _spritesheet_none_far              data_manager
     00044016  _load_bkg_tileset                  data_manager
     000440F3  _load_background                   data_manager
     000441B9  _load_sprite                       data_manager
     0004428F  _load_bounds                       data_manager
     000442AC  _do_load_palette                   data_manager
     00044331  _load_scene                        data_manager
     00044997  _load_player                       data_manager
     000449E0  _load_emote                        data_manager
     000449F9  ___func_VM_MAIN                    vm
     000449F9  _vm_call                           vm
     00044A3B  _vm_ret                            vm
     00044A9B  _vm_call_far                       vm
     00044B1A  _vm_ret_far                        vm
     00044B92  _vm_push                           vm
     00044BBD  _vm_pop                            vm
     00044BF8  _vm_loop                           vm
     00044C83  _vm_jump                           vm
     00044C8F  _wait_frames                       vm
     00044CFC  _vm_invoke                         vm
     00044E29  _vm_join                           vm
     00044E8B  _vm_terminate                      vm
     00044EB8  _vm_if                             vm
     00044FFD  _vm_if_const                       vm
     00045112  _vm_push_value                     vm
     00045164  _vm_push_value_ind                 vm
     000451D9  _vm_push_reference                 vm
     00045230  _vm_reserve                        vm
     0004525E  _vm_set                            vm
     000452BF  _vm_set_const                      vm
     000452EB  _vm_get_tlocal                     vm
     00045378  _vm_test_terminate                 vm
     00045383  _vm_idle                           vm
     0004538F  _vm_init_rng                       vm
     000453BB  _vm_rand                           vm
     000453FD  _vm_lock                           vm
     0004540C  _vm_unlock                         vm
     0004541F  _vm_raise                          vm
     00045461  _vm_set_indirect                   vm
     000454DC  _vm_get_indirect                   vm
     00045557  _vm_poll_loaded                    vm
     00045587  _vm_memset                         vm
     000455C1  _vm_memcpy                         vm
     0004563E  _script_runner_init                vm
     000456F5  _script_execute                    vm
     0004585B  _script_terminate                  vm
     000458C0  _script_detach_hthread             vm
     000458FC  GBVM$actor_18_update$aaa2ff7a_92   actor_18_update
     000458FC  _actor_18_update                   actor_18_update
ASxxxx Linker V03.00/V05.40 + sdld,  page 53.
Hexadecimal  [32-Bits]

Area                                    Addr        Size        Decimal Bytes (Attributes)
--------------------------------        ----        ----        ------- ----- ------------
_CODE_4                             00044000    00004000 =       16384. bytes (REL,CON)

      Value  Global                              Global Defined In Module
      -----  --------------------------------   ------------------------
     00045908  ___func_bg_parallax_tileset        bg_parallax_tileset
     00045908  _bg_parallax_tileset               bg_parallax_tileset
     000464FA  ___func_font_gbs_variable_width    font_gbs_variable_width
     00047375  _font_gbs_variable_width           font_gbs_variable_width
     00047E54  _song_rulz_intro_0_Data            song_rulz_intro_0_Data
     00047E69  ___func_sprite_player_platform     sprite_player_platform
     00047E69  _sprite_player_platform_metaspri   sprite_player_platform
     00047E7D  _sprite_player_platform_metaspri   sprite_player_platform
     00047E91  _sprite_player_platform_metaspri   sprite_player_platform
     00047EA5  _sprite_player_platform_metaspri   sprite_player_platform
     00047EB9  _sprite_player_platform_metaspri   sprite_player_platform
     00047ECD  _sprite_player_platform_metaspri   sprite_player_platform
     00047EE1  _sprite_player_platform_metaspri   sprite_player_platform
     00047EF5  _sprite_player_platform_metaspri   sprite_player_platform
     00047F09  _sprite_player_platform_metaspri   sprite_player_platform
     00047F0D  _sprite_player_platform_metaspri   sprite_player_platform
     00047F21  _sprite_player_platform_metaspri   sprite_player_platform
     00047F35  _sprite_player_platform_metaspri   sprite_player_platform
     00047F49  _sprite_player_platform_metaspri   sprite_player_platform
     00047F5D  _sprite_player_platform_metaspri   sprite_player_platform
     00047F71  _sprite_player_platform_metaspri   sprite_player_platform
     00047F85  _sprite_player_platform_metaspri   sprite_player_platform
     00047F99  _sprite_player_platform_metaspri   sprite_player_platform
     00047FAD  _sprite_player_platform_metaspri   sprite_player_platform
     00047FDB  _sprite_player_platform_animatio   sprite_player_platform
     00047FEB  _sprite_player_platform_animatio   sprite_player_platform
     00047FED  _sprite_player_platform            sprite_player_platform

ASxxxx Linker V03.00/V05.40 + sdld,  page 54.
Hexadecimal  [32-Bits]

Area                                    Addr        Size        Decimal Bytes (Attributes)
--------------------------------        ----        ----        ------- ----- ------------
_CODE_7                             00074000    00004000 =       16384. bytes (REL,CON)

      Value  Global                              Global Defined In Module
      -----  --------------------------------   ------------------------
     00074000  _events_init                       events
     00074040  _timers_init                       events
     000740E8  _save_sram_banks                   
     00074170  _erase_flash                       
     00074186  _restore_sram_bank                 flasher
     000741BC  _restore_sram                      flasher
     000741D2  _save_sram                         flasher
     000741FE  _music_init_driver                 music_manager
     0007425A  _music_init_events                 music_manager
     00074296  _music_events_poll                 music_manager
     000742BE  _music_pause                       music_manager
     000742E0  _palette_init                      palette
     00074317  _CGBZeroPalette                    palette
     0007432C  ___func_VM_GBPRINTER               vm_gbprinter
     0007432C  _vm_print_detect                   vm_gbprinter
     0007437B  _vm_print_overlay                  vm_gbprinter
     000743D0  ___func_VM_LOAD_SAVE               vm_load_save
     000743D0  _vm_save_clear                     vm_load_save
     000743DF  _vm_save_peek                      vm_load_save
     00074461  ___func_VM_MATH                    vm_math
     00074461  _vm_sin_scale                      vm_math
     000744FD  _vm_cos_scale                      vm_math
     0007459B  ___func_VM_MUSIC                   vm_music
     0007459B  _vm_music_play                     vm_music
     000745E8  _vm_music_stop                     vm_music
     0007460A  _vm_music_mute                     vm_music
     00074648  _vm_music_routine                  vm_music
     0007466F  _vm_music_setpos                   vm_music
     00074675  _vm_sound_mastervol                vm_music
     0007467B  _vm_sfx_play                       vm_music
     000746EE  ___func_VM_PROJECTILE              vm_projectiles
     000746EE  _vm_projectile_launch              vm_projectiles
     0007472F  _vm_projectile_load_type           vm_projectiles
     000747C1  ___func_VM_RTC                     vm_rtc
     000747C1  _vm_rtc_latch                      vm_rtc
     000747C9  _vm_rtc_get                        vm_rtc
     00074830  _vm_rtc_set                        vm_rtc
     0007488E  _vm_rtc_start                      vm_rtc
     000748B1  ___func_VM_SCENE                   vm_scene
     000748B1  _vm_scene_push                     vm_scene
     00074927  _vm_scene_pop                      vm_scene
     00074935  _vm_scene_pop_all                  vm_scene
     00074940  _vm_scene_stack_reset              vm_scene
     00074949  _itoa_fmt                          vm_ui_a
     0007497D  .utoa_fmt                          vm_ui_a
     00074A27  _actor_0_interact                  actor_0_interact
     00074A2A  GBVM$actor_0_interact$adca4661_2   actor_0_interact
     00074A6E  GBVM$actor_0_interact$fcaf9ec5_7   actor_0_interact
     00074A7A  GBVM$actor_0_interact$c162d6cf_1   actor_0_interact
     00074A8A  GBVM$actor_0_interact$30813d9a_6   actor_0_interact
ASxxxx Linker V03.00/V05.40 + sdld,  page 55.
Hexadecimal  [32-Bits]

Area                                    Addr        Size        Decimal Bytes (Attributes)
--------------------------------        ----        ----        ------- ----- ------------
_CODE_7                             00074000    00004000 =       16384. bytes (REL,CON)

      Value  Global                              Global Defined In Module
      -----  --------------------------------   ------------------------
     00074ACC  GBVM$actor_0_interact$a1bb5aff_9   actor_0_interact
     00074B1B  GBVM$actor_0_interact$autofade$2   actor_0_interact
     00074B26  GBVM_END$actor_0_interact$c162d6   actor_0_interact
     00074B26  GBVM_END$actor_0_interact$fcaf9e   actor_0_interact
     00074B27  _actor_28_interact                 actor_28_interact
     00074B28  GBVM$actor_28_interact$9987656e_   actor_28_interact
     00074B86  _actor_30_interact                 actor_30_interact
     00074B89  GBVM$actor_30_interact$cc23a5cb_   actor_30_interact
     00074BA2  GBVM$actor_30_interact$28750f6d_   actor_30_interact
     00074BE5  _actor_31_interact                 actor_31_interact
     00074BF8  GBVM$actor_31_interact$944433b0_   actor_31_interact
     00074C1A  GBVM$actor_31_interact$25164a85_   actor_31_interact
     00074C1F  GBVM$actor_31_interact$f3a8046f_   actor_31_interact
     00074C2A  GBVM$actor_31_interact$127ca6b6_   actor_31_interact
     00074C34  GBVM$actor_31_interact$c5e3802a_   actor_31_interact
     00074C3C  GBVM$actor_31_interact$0887e97a_   actor_31_interact
     00074C4B  GBVM$actor_31_interact$cf61f0e0_   actor_31_interact
     00074C54  GBVM$actor_31_interact$4f08db3b_   actor_31_interact
     00074C60  GBVM$actor_31_interact$bc763470_   actor_31_interact
     00074C6B  GBVM$actor_31_interact$92572552_   actor_31_interact
     00074C81  GBVM$actor_31_interact$d219381b_   actor_31_interact
     00074C9A  GBVM_END$actor_31_interact$94443   actor_31_interact
     00074C9C  _actor_31_update                   actor_31_update
     00074C9E  GBVM$actor_31_update$640f0031_1e   actor_31_update
     00074CC0  GBVM$actor_31_update$12ba5952_42   actor_31_update
     00074D16  GBVM$actor_31_update$665c4ef4_47   actor_31_update
     00074D69  GBVM$actor_31_update$2e5058bf_b4   actor_31_update
     00074D69  GBVM_END$actor_31_update$640f003   actor_31_update
     00074D7A  _actor_32_interact                 actor_32_interact
     00074D7D  GBVM$actor_32_interact$adca4661_   actor_32_interact
     00074DC1  GBVM$actor_32_interact$fcaf9ec5_   actor_32_interact
     00074DCD  GBVM$actor_32_interact$c162d6cf_   actor_32_interact
     00074DDD  GBVM$actor_32_interact$30813d9a_   actor_32_interact
     00074E1F  GBVM$actor_32_interact$a1bb5aff_   actor_32_interact
     00074E6E  GBVM$actor_32_interact$autofade$   actor_32_interact
     00074E79  GBVM_END$actor_32_interact$c162d   actor_32_interact
     00074E79  GBVM_END$actor_32_interact$fcaf9   actor_32_interact
     00074E7A  _actor_33_interact                 actor_33_interact
     00074E8D  GBVM$actor_33_interact$944433b0_   actor_33_interact
     00074EAF  GBVM$actor_33_interact$25164a85_   actor_33_interact
     00074EB4  GBVM$actor_33_interact$f3a8046f_   actor_33_interact
     00074EBF  GBVM$actor_33_interact$127ca6b6_   actor_33_interact
     00074EC9  GBVM$actor_33_interact$c5e3802a_   actor_33_interact
     00074ED1  GBVM$actor_33_interact$0887e97a_   actor_33_interact
     00074EE0  GBVM$actor_33_interact$cf61f0e0_   actor_33_interact
     00074EE9  GBVM$actor_33_interact$4f08db3b_   actor_33_interact
     00074EF5  GBVM$actor_33_interact$bc763470_   actor_33_interact
     00074F00  GBVM$actor_33_interact$92572552_   actor_33_interact
     00074F16  GBVM$actor_33_interact$d219381b_   actor_33_interact
     00074F2F  GBVM_END$actor_33_interact$94443   actor_33_interact
     00074F31  _actor_33_update                   actor_33_update
ASxxxx Linker V03.00/V05.40 + sdld,  page 56.
Hexadecimal  [32-Bits]

Area                                    Addr        Size        Decimal Bytes (Attributes)
--------------------------------        ----        ----        ------- ----- ------------
_CODE_7                             00074000    00004000 =       16384. bytes (REL,CON)

      Value  Global                              Global Defined In Module
      -----  --------------------------------   ------------------------
     00074F33  GBVM$actor_33_update$640f0031_1e   actor_33_update
     00074F55  GBVM$actor_33_update$12ba5952_42   actor_33_update
     00074FAB  GBVM$actor_33_update$665c4ef4_47   actor_33_update
     00074FFE  GBVM$actor_33_update$2e5058bf_b4   actor_33_update
     00074FFE  GBVM_END$actor_33_update$640f003   actor_33_update
     0007500F  _actor_34_interact                 actor_34_interact
     00075022  GBVM$actor_34_interact$944433b0_   actor_34_interact
     00075044  GBVM$actor_34_interact$25164a85_   actor_34_interact
     00075049  GBVM$actor_34_interact$f3a8046f_   actor_34_interact
     00075054  GBVM$actor_34_interact$127ca6b6_   actor_34_interact
     0007505E  GBVM$actor_34_interact$c5e3802a_   actor_34_interact
     00075066  GBVM$actor_34_interact$0887e97a_   actor_34_interact
     00075075  GBVM$actor_34_interact$cf61f0e0_   actor_34_interact
     0007507E  GBVM$actor_34_interact$4f08db3b_   actor_34_interact
     0007508A  GBVM$actor_34_interact$bc763470_   actor_34_interact
     00075095  GBVM$actor_34_interact$92572552_   actor_34_interact
     000750AB  GBVM$actor_34_interact$d219381b_   actor_34_interact
     000750C4  GBVM_END$actor_34_interact$94443   actor_34_interact
     000750C6  _actor_34_update                   actor_34_update
     000750C8  GBVM$actor_34_update$640f0031_1e   actor_34_update
     000750EA  GBVM$actor_34_update$12ba5952_42   actor_34_update
     00075140  GBVM$actor_34_update$665c4ef4_47   actor_34_update
     00075193  GBVM$actor_34_update$2e5058bf_b4   actor_34_update
     00075193  GBVM_END$actor_34_update$640f003   actor_34_update
     000751A4  _actor_42_interact                 actor_42_interact
     000751A7  GBVM$actor_42_interact$adca4661_   actor_42_interact
     000751EB  GBVM$actor_42_interact$fcaf9ec5_   actor_42_interact
     000751F7  GBVM$actor_42_interact$c162d6cf_   actor_42_interact
     00075207  GBVM$actor_42_interact$30813d9a_   actor_42_interact
     00075249  GBVM$actor_42_interact$a1bb5aff_   actor_42_interact
     00075298  GBVM$actor_42_interact$autofade$   actor_42_interact
     000752A3  GBVM_END$actor_42_interact$c162d   actor_42_interact
     000752A3  GBVM_END$actor_42_interact$fcaf9   actor_42_interact
     000752A4  _actor_43_interact                 actor_43_interact
     000752A7  GBVM$actor_43_interact$17587ded_   actor_43_interact
     00075315  GBVM$actor_43_interact$b70819f8_   actor_43_interact
     00075327  GBVM$actor_43_interact$73881f98_   actor_43_interact
     00075342  GBVM$actor_43_interact$fc6bc21b_   actor_43_interact
     0007534E  _actor_54_interact                 actor_54_interact
     00075351  GBVM$actor_54_interact$da5b989f_   actor_54_interact
     000753E5  GBVM$actor_54_interact$230c2eb7_   actor_54_interact
     000753EB  GBVM$actor_54_interact$b48a0693_   actor_54_interact
     000753F5  GBVM$actor_54_interact$f0265f0b_   actor_54_interact
     00075428  ___func_bg_house_tilemap_attr      bg_house_tilemap_attr
     00075428  _bg_house_tilemap_attr             bg_house_tilemap_attr
     00075590  ___func_bg_house_tilemap           bg_house_tilemap
     00075590  _bg_house_tilemap                  bg_house_tilemap
     000756F8  ___func_bg_house_wide_tileset      bg_house_wide_tileset
     000756F8  _bg_house_wide_tileset             bg_house_wide_tileset
     000757EA  ___func_bg_launch_site_tilemap_a   bg_launch_site_tilemap_attr
     000757EA  _bg_launch_site_tilemap_attr       bg_launch_site_tilemap_attr
ASxxxx Linker V03.00/V05.40 + sdld,  page 57.
Hexadecimal  [32-Bits]

Area                                    Addr        Size        Decimal Bytes (Attributes)
--------------------------------        ----        ----        ------- ----- ------------
_CODE_7                             00074000    00004000 =       16384. bytes (REL,CON)

      Value  Global                              Global Defined In Module
      -----  --------------------------------   ------------------------
     00075952  ___func_bg_launch_site_tilemap     bg_launch_site_tilemap
     00075952  _bg_launch_site_tilemap            bg_launch_site_tilemap
     00075ABA  ___func_bg_logo_tilemap_attr       bg_logo_tilemap_attr
     00075ABA  _bg_logo_tilemap_attr              bg_logo_tilemap_attr
     00075C22  ___func_bg_logo_tilemap            bg_logo_tilemap
     00075C22  _bg_logo_tilemap                   bg_logo_tilemap
     00075D8A  ___func_bg_titlescreen_tilemap_a   bg_titlescreen_tilemap_attr
     00075D8A  _bg_titlescreen_tilemap_attr       bg_titlescreen_tilemap_attr
     00075EF2  ___func_bg_titlescreen_tilemap     bg_titlescreen_tilemap
     00075EF2  _bg_titlescreen_tilemap            bg_titlescreen_tilemap
     0007605A  ___func_frame_image                frame_image
     0007605A  _frame_image                       frame_image
     000760EA  ___func_palette_0                  palette_0
     000760EA  _palette_0                         palette_0
     0007612D  ___func_palette_1                  palette_1
     0007612D  _palette_1                         palette_1
     00076170  ___func_palette_2                  palette_2
     00076170  _palette_2                         palette_2
     000761B3  _scene_12_init                     scene_12_init
     000761B6  GBVM$scene_12_init$404f4be3_26b3   scene_12_init
     000761BA  GBVM$scene_12_init$9a00d3f5_ca17   scene_12_init
     000761C3  GBVM$scene_12_init$autofade$7cee   scene_12_init
     000761CE  GBVM$scene_12_init$4c9ec85c_b033   scene_12_init
     00076221  GBVM$scene_12_init$e64c61a6_9451   scene_12_init
     00076225  GBVM$scene_12_init$5d08fcad_b754   scene_12_init
     0007622F  ___func_scene_15_collisions        scene_15_collisions
     0007622F  _scene_15_collisions               scene_15_collisions
     00076397  ___func_scene_18_actors            scene_18_actors
     00076397  _scene_18_actors                   scene_18_actors
     00076467  ___func_scene_18_collisions        scene_18_collisions
     00076467  _scene_18_collisions               scene_18_collisions
     000765CF  _scene_18_init                     scene_18_init
     000765D0  GBVM$scene_18_init$autofade$e5ac   scene_18_init
     000765DB  GBVM$scene_18_init$3807b22d_7d42   scene_18_init
     00076619  GBVM$scene_18_init$4b1d5c5a_26da   scene_18_init
     0007661E  ___func_scene_19_actors            scene_19_actors
     0007661E  _scene_19_actors                   scene_19_actors
     000766EE  _scene_19_init                     scene_19_init
     000766F1  GBVM$scene_19_init$f9b7f803_84f0   scene_19_init
     000766FD  GBVM$scene_19_init$f2214149_4257   scene_19_init
     00076705  GBVM$scene_19_init$ed88ee8c_b0d6   scene_19_init
     0007671B  GBVM$scene_19_init$f9b7f803_84f0   scene_19_init
     00076727  GBVM$scene_19_init$f2214149_4257   scene_19_init
     0007672F  GBVM$scene_19_init$ed88ee8c_b0d6   scene_19_init
     00076745  GBVM$scene_19_init$f9b7f803_84f0   scene_19_init
     00076751  GBVM$scene_19_init$f2214149_4257   scene_19_init
     00076759  GBVM$scene_19_init$ed88ee8c_b0d6   scene_19_init
     0007676F  GBVM$scene_19_init$16454b49_e718   scene_19_init
     0007676F  GBVM_END$scene_19_init$f9b7f803_   scene_19_init
     00076773  GBVM$scene_19_init$autofade$d0e8   scene_19_init
     0007677F  ___func_scene_logo_collisions      scene_logo_collisions
ASxxxx Linker V03.00/V05.40 + sdld,  page 58.
Hexadecimal  [32-Bits]

Area                                    Addr        Size        Decimal Bytes (Attributes)
--------------------------------        ----        ----        ------- ----- ------------
_CODE_7                             00074000    00004000 =       16384. bytes (REL,CON)

      Value  Global                              Global Defined In Module
      -----  --------------------------------   ------------------------
     0007677F  _scene_logo_collisions             scene_logo_collisions
     000768E7  _scene_logo_init                   scene_logo_init
     000768EA  GBVM$scene_logo_init$8343c54c_07   scene_logo_init
     000768F2  GBVM$scene_logo_init$dfb4c321_31   scene_logo_init
     000768F7  GBVM$scene_logo_init$autofade$38   scene_logo_init
     00076902  GBVM$scene_logo_init$e88fcc15_89   scene_logo_init
     00076909  GBVM$scene_logo_init$0677a82b_f7   scene_logo_init
     00076915  GBVM$scene_logo_init$9daba1e6_c0   scene_logo_init
     00076948  ___func_scene_title_screen_colli   scene_title_screen_collision
     00076948  _scene_title_screen_collisions     scene_title_screen_collision
     00076AB0  _scene_title_screen_init           scene_title_screen_init
     00076AB3  GBVM$scene_title_screen_init$82b   scene_title_screen_init
     00076AB7  GBVM$scene_title_screen_init$ff7   scene_title_screen_init
     00076ABF  GBVM$scene_title_screen_init$aut   scene_title_screen_init
     00076ACA  GBVM$scene_title_screen_init$41b   scene_title_screen_init
     00076ACC  GBVM$scene_title_screen_init$8ad   scene_title_screen_init
     00076AE0  GBVM$scene_title_screen_init$19a   scene_title_screen_init
     00076AE0  GBVM$scene_title_screen_init$447   scene_title_screen_init
     00076B25  GBVM$scene_title_screen_init$9e7   scene_title_screen_init
     00076B2E  GBVM$scene_title_screen_init$d2c   scene_title_screen_init
     00076B41  GBVM$scene_title_screen_init$06b   scene_title_screen_init
     00076B7E  GBVM$scene_title_screen_init$4a9   scene_title_screen_init
     00076B82  GBVM_END$scene_title_screen_init   scene_title_screen_init
     00076B85  GBVM$scene_title_screen_init$a5d   scene_title_screen_init
     00076BB7  GBVM_END$scene_title_screen_init   scene_title_screen_init
     00076BBA  GBVM_END$scene_title_screen_init   scene_title_screen_init
     00076BBB  _script_enemy_ship_movement__0     script_enemy_ship_movement__
     00076BBD  GBVM$script_enemy_ship_movement_   script_enemy_ship_movement__
     00076C10  GBVM$script_enemy_ship_movement_   script_enemy_ship_movement__
     00076C63  GBVM$script_enemy_ship_movement_   script_enemy_ship_movement__
     00076C7F  GBVM$script_enemy_ship_movement_   script_enemy_ship_movement__
     00076CD2  GBVM$script_enemy_ship_movement_   script_enemy_ship_movement__
     00076D29  _script_enemy_ship_movement__1     script_enemy_ship_movement__
     00076D2B  GBVM$script_enemy_ship_movement_   script_enemy_ship_movement__
     00076D7E  GBVM$script_enemy_ship_movement_   script_enemy_ship_movement__
     00076DD1  GBVM$script_enemy_ship_movement_   script_enemy_ship_movement__
     00076DED  GBVM$script_enemy_ship_movement_   script_enemy_ship_movement__
     00076E40  GBVM$script_enemy_ship_movement_   script_enemy_ship_movement__
     00076E97  _script_enemy_ship_movement__2     script_enemy_ship_movement__
     00076E99  GBVM$script_enemy_ship_movement_   script_enemy_ship_movement__
     00076EEC  GBVM$script_enemy_ship_movement_   script_enemy_ship_movement__
     00076F3F  GBVM$script_enemy_ship_movement_   script_enemy_ship_movement__
     00076F5B  GBVM$script_enemy_ship_movement_   script_enemy_ship_movement__
     00076FAE  GBVM$script_enemy_ship_movement_   script_enemy_ship_movement__
     00077005  _script_enemy_ship_movement_       script_enemy_ship_movement_
     00077007  GBVM$script_enemy_ship_movement_   script_enemy_ship_movement_
     0007705A  GBVM$script_enemy_ship_movement_   script_enemy_ship_movement_
     000770AD  GBVM$script_enemy_ship_movement_   script_enemy_ship_movement_
     000770C9  GBVM$script_enemy_ship_movement_   script_enemy_ship_movement_
     0007711C  GBVM$script_enemy_ship_movement_   script_enemy_ship_movement_
     00077173  _script_engine_init                
ASxxxx Linker V03.00/V05.40 + sdld,  page 59.
Hexadecimal  [32-Bits]

Area                                    Addr        Size        Decimal Bytes (Attributes)
--------------------------------        ----        ----        ------- ----- ------------
_CODE_7                             00074000    00004000 =       16384. bytes (REL,CON)

      Value  Global                              Global Defined In Module
      -----  --------------------------------   ------------------------
     000771F3  ___func_sound_legacy_0             sound_legacy_0
     000771F3  _sound_legacy_0                    sound_legacy_0
     00077206  ___func_sprite_bullet_left_tiles   sprite_bullet_left_tileset
     00077206  _sprite_bullet_left_tileset        sprite_bullet_left_tileset
     00077288  ___func_sprite_bullet_right_tile   sprite_bullet_right_tileset
     00077288  _sprite_bullet_right_tileset       sprite_bullet_right_tileset
     0007730A  ___func_sprite_cat_tileset         sprite_cat_tileset
     0007730A  _sprite_cat_tileset                sprite_cat_tileset
     0007734C  ___func_sprite_enemy_ship_tilese   sprite_enemy_ship_tileset
     0007734C  _sprite_enemy_ship_tileset         sprite_enemy_ship_tileset
     000774AE  ___func_sprite_enemy_ship          sprite_enemy_ship
     000774AE  _sprite_enemy_ship_metasprite_0    sprite_enemy_ship
     000774BA  _sprite_enemy_ship_metasprite_1    sprite_enemy_ship
     000774C6  _sprite_enemy_ship_metasprite_2    sprite_enemy_ship
     000774D2  _sprite_enemy_ship_metasprite_3    sprite_enemy_ship
     000774DE  _sprite_enemy_ship_metasprite_4    sprite_enemy_ship
     000774EA  _sprite_enemy_ship_metasprite_5    sprite_enemy_ship
     000774F6  _sprite_enemy_ship_metasprites     sprite_enemy_ship
     00077502  _sprite_enemy_ship_animations      sprite_enemy_ship
     00077522  _sprite_enemy_ship_animations_lo   sprite_enemy_ship
     00077526  _sprite_enemy_ship                 sprite_enemy_ship
     00077539  ___func_sprite_keyboard_tileset    sprite_keyboard_tileset
     00077539  _sprite_keyboard_tileset           sprite_keyboard_tileset
     000775BB  ___func_sprite_machine_tileset     sprite_machine_tileset
     000775BB  _sprite_machine_tileset            sprite_machine_tileset
     0007763D  ___func_sprite_npc004              sprite_npc004
     0007763D  _sprite_npc004_metasprite_0        sprite_npc004
     00077649  _sprite_npc004_metasprite_1        sprite_npc004
     00077655  _sprite_npc004_metasprite_2        sprite_npc004
     00077661  _sprite_npc004_metasprite_3        sprite_npc004
     0007766D  _sprite_npc004_metasprite_4        sprite_npc004
     00077679  _sprite_npc004_metasprite_5        sprite_npc004
     00077685  _sprite_npc004_metasprite_6        sprite_npc004
     00077691  _sprite_npc004_metasprite_7        sprite_npc004
     0007769D  _sprite_npc004_metasprites         sprite_npc004
     000776B5  _sprite_npc004_animations          sprite_npc004
     000776C5  _sprite_npc004_animations_lookup   sprite_npc004
     000776C7  _sprite_npc004                     sprite_npc004
     000776DA  ___func_sprite_npc008_tileset      sprite_npc008_tileset
     000776DA  _sprite_npc008_tileset             sprite_npc008_tileset
     000777DC  ___func_sprite_player_ship_tiles   sprite_player_ship_tileset
     000777DC  _sprite_player_ship_tileset        sprite_player_ship_tileset
     000778FE  ___func_sprite_player_ship         sprite_player_ship
     000778FE  _sprite_player_ship_metasprite_0   sprite_player_ship
     0007790A  _sprite_player_ship_metasprite_1   sprite_player_ship
     00077916  _sprite_player_ship_metasprite_2   sprite_player_ship
     00077922  _sprite_player_ship_metasprite_3   sprite_player_ship
     0007792E  _sprite_player_ship_metasprite_4   sprite_player_ship
     0007793A  _sprite_player_ship_metasprite_5   sprite_player_ship
     00077946  _sprite_player_ship_metasprite_6   sprite_player_ship
     00077952  _sprite_player_ship_metasprite_7   sprite_player_ship
ASxxxx Linker V03.00/V05.40 + sdld,  page 60.
Hexadecimal  [32-Bits]

Area                                    Addr        Size        Decimal Bytes (Attributes)
--------------------------------        ----        ----        ------- ----- ------------
_CODE_7                             00074000    00004000 =       16384. bytes (REL,CON)

      Value  Global                              Global Defined In Module
      -----  --------------------------------   ------------------------
     0007795E  _sprite_player_ship_metasprites    sprite_player_ship
     00077976  _sprite_player_ship_animations     sprite_player_ship
     00077986  _sprite_player_ship_animations_l   sprite_player_ship
     00077988  _sprite_player_ship                sprite_player_ship
     0007799B  ___func_sprite_player_tileset      sprite_player_tileset
     0007799B  _sprite_player_tileset             sprite_player_tileset
     00077B1D  ___func_sprite_player              sprite_player
     00077B1D  _sprite_player_metasprite_0        sprite_player
     00077B29  _sprite_player_metasprite_1        sprite_player
     00077B35  _sprite_player_metasprite_2        sprite_player
     00077B41  _sprite_player_metasprite_3        sprite_player
     00077B4D  _sprite_player_metasprite_4        sprite_player
     00077B59  _sprite_player_metasprite_5        sprite_player
     00077B65  _sprite_player_metasprite_6        sprite_player
     00077B71  _sprite_player_metasprite_7        sprite_player
     00077B7D  _sprite_player_metasprites         sprite_player
     00077B95  _sprite_player_animations          sprite_player
     00077BA5  _sprite_player_animations_lookup   sprite_player
     00077BA7  _sprite_player                     sprite_player
     00077BBA  ___func_sprite_rock_tileset        sprite_rock_tileset
     00077BBA  _sprite_rock_tileset               sprite_rock_tileset
     00077BFC  ___func_sprite_savepoint_tileset   sprite_savepoint_tileset
     00077BFC  _sprite_savepoint_tileset          sprite_savepoint_tileset
     00077C3E  ___func_sprite_space_mine_tilese   sprite_space_mine_tileset
     00077C3E  _sprite_space_mine_tileset         sprite_space_mine_tileset
     00077DC0  ___func_sprite_space_mine          sprite_space_mine
     00077DC0  _sprite_space_mine_metasprite_0    sprite_space_mine
     00077DCC  _sprite_space_mine_metasprite_1    sprite_space_mine
     00077DD8  _sprite_space_mine_metasprite_2    sprite_space_mine
     00077DE4  _sprite_space_mine_metasprite_3    sprite_space_mine
     00077DF0  _sprite_space_mine_metasprite_4    sprite_space_mine
     00077DFC  _sprite_space_mine_metasprite_5    sprite_space_mine
     00077E08  _sprite_space_mine_metasprites     sprite_space_mine
     00077E14  _sprite_space_mine_animations      sprite_space_mine
     00077E34  _sprite_space_mine_animations_lo   sprite_space_mine
     00077E38  _sprite_space_mine                 sprite_space_mine
     00077E4B  ___func_sprite_turnip_tileset      sprite_turnip_tileset
     00077E4B  _sprite_turnip_tileset             sprite_turnip_tileset
     00077F0D  ___func_sprite_turnip              sprite_turnip
     00077F0D  _sprite_turnip_metasprite_0        sprite_turnip
     00077F19  _sprite_turnip_metasprite_1        sprite_turnip
     00077F25  _sprite_turnip_metasprite_2        sprite_turnip
     00077F31  _sprite_turnip_metasprites         sprite_turnip
     00077F37  _sprite_turnip_animations          sprite_turnip
     00077F57  _sprite_turnip_animations_lookup   sprite_turnip
     00077F5B  _sprite_turnip                     sprite_turnip
     00077F6E  ___func_tileset_default_frame      tileset_default_frame
     00077F6E  _tileset_default_frame             tileset_default_frame

ASxxxx Linker V03.00/V05.40 + sdld,  page 61.
Hexadecimal  [32-Bits]

Area                                    Addr        Size        Decimal Bytes (Attributes)
--------------------------------        ----        ----        ------- ----- ------------
_CODE_8                             00084000    00000E9E =        3742. bytes (REL,CON)

      Value  Global                              Global Defined In Module
      -----  --------------------------------   ------------------------
     00084000  _input_init                        input
     00084026  _remove_LCD_ISRs                   interrupts
     00084041  _parallax_init                     parallax
     00084061  _scroll_rect                       
     0008409E  _actor_18_interact                 actor_18_interact
     000840B1  GBVM$actor_18_interact$cf03123a_   actor_18_interact
     000840CA  GBVM$actor_18_interact$24f3b935_   actor_18_interact
     000840D3  _actor_19_interact                 actor_19_interact
     000840E6  GBVM$actor_19_interact$f369ea59_   actor_19_interact
     000840FF  GBVM$actor_19_interact$ba4b6aa2_   actor_19_interact
     00084108  GBVM$actor_19_update$9b696d76_ae   actor_19_update
     00084108  _actor_19_update                   actor_19_update
     00084114  _actor_20_interact                 actor_20_interact
     00084127  GBVM$actor_20_interact$2ab3eea3_   actor_20_interact
     00084140  GBVM$actor_20_interact$31f9ba45_   actor_20_interact
     00084149  GBVM$actor_20_update$e0baebe5_9b   actor_20_update
     00084149  _actor_20_update                   actor_20_update
     00084155  _actor_21_interact                 actor_21_interact
     00084168  GBVM$actor_21_interact$2ab3eea3_   actor_21_interact
     00084181  GBVM$actor_21_interact$31f9ba45_   actor_21_interact
     0008418A  GBVM$actor_21_update$e0baebe5_9b   actor_21_update
     0008418A  _actor_21_update                   actor_21_update
     00084196  _actor_22_interact                 actor_22_interact
     000841A9  GBVM$actor_22_interact$133ffbca_   actor_22_interact
     000841BF  GBVM$actor_22_interact$76da6451_   actor_22_interact
     000841C8  GBVM$actor_22_update$d8eca49c_57   actor_22_update
     000841C8  _actor_22_update                   actor_22_update
     000841D4  _actor_23_interact                 actor_23_interact
     000841E7  GBVM$actor_23_interact$133ffbca_   actor_23_interact
     000841FD  GBVM$actor_23_interact$76da6451_   actor_23_interact
     00084206  GBVM$actor_23_update$d8eca49c_57   actor_23_update
     00084206  _actor_23_update                   actor_23_update
     00084212  _actor_24_interact                 actor_24_interact
     00084225  GBVM$actor_24_interact$cf03123a_   actor_24_interact
     0008423E  GBVM$actor_24_interact$24f3b935_   actor_24_interact
     00084247  GBVM$actor_24_update$aaa2ff7a_92   actor_24_update
     00084247  _actor_24_update                   actor_24_update
     00084253  _actor_25_interact                 actor_25_interact
     00084266  GBVM$actor_25_interact$133ffbca_   actor_25_interact
     0008427C  GBVM$actor_25_interact$76da6451_   actor_25_interact
     00084285  GBVM$actor_25_update$d8eca49c_57   actor_25_update
     00084285  _actor_25_update                   actor_25_update
     00084291  _actor_26_interact                 actor_26_interact
     000842A4  GBVM$actor_26_interact$2ab3eea3_   actor_26_interact
     000842BD  GBVM$actor_26_interact$31f9ba45_   actor_26_interact
     000842C6  GBVM$actor_26_update$e0baebe5_9b   actor_26_update
     000842C6  _actor_26_update                   actor_26_update
     000842D2  _actor_29_interact                 actor_29_interact
     000842D3  GBVM$actor_29_interact$cda1e530_   actor_29_interact
     00084304  _actor_44_interact                 actor_44_interact
ASxxxx Linker V03.00/V05.40 + sdld,  page 62.
Hexadecimal  [32-Bits]

Area                                    Addr        Size        Decimal Bytes (Attributes)
--------------------------------        ----        ----        ------- ----- ------------
_CODE_8                             00084000    00000E9E =        3742. bytes (REL,CON)

      Value  Global                              Global Defined In Module
      -----  --------------------------------   ------------------------
     00084317  GBVM$actor_44_interact$f369ea59_   actor_44_interact
     00084330  GBVM$actor_44_interact$ba4b6aa2_   actor_44_interact
     00084339  GBVM$actor_44_update$9b696d76_ae   actor_44_update
     00084339  _actor_44_update                   actor_44_update
     00084345  _actor_45_interact                 actor_45_interact
     00084358  GBVM$actor_45_interact$133ffbca_   actor_45_interact
     0008436E  GBVM$actor_45_interact$76da6451_   actor_45_interact
     00084377  GBVM$actor_45_update$d8eca49c_57   actor_45_update
     00084377  _actor_45_update                   actor_45_update
     00084383  _actor_46_interact                 actor_46_interact
     00084396  GBVM$actor_46_interact$133ffbca_   actor_46_interact
     000843AC  GBVM$actor_46_interact$76da6451_   actor_46_interact
     000843B5  GBVM$actor_46_update$d8eca49c_57   actor_46_update
     000843B5  _actor_46_update                   actor_46_update
     000843C1  _actor_47_interact                 actor_47_interact
     000843D4  GBVM$actor_47_interact$133ffbca_   actor_47_interact
     000843EA  GBVM$actor_47_interact$76da6451_   actor_47_interact
     000843F3  GBVM$actor_47_update$d8eca49c_57   actor_47_update
     000843F3  _actor_47_update                   actor_47_update
     000843FF  _actor_48_interact                 actor_48_interact
     00084412  GBVM$actor_48_interact$2ab3eea3_   actor_48_interact
     0008442B  GBVM$actor_48_interact$31f9ba45_   actor_48_interact
     00084434  GBVM$actor_48_update$e0baebe5_9b   actor_48_update
     00084434  _actor_48_update                   actor_48_update
     00084440  _actor_49_interact                 actor_49_interact
     00084453  GBVM$actor_49_interact$2ab3eea3_   actor_49_interact
     0008446C  GBVM$actor_49_interact$31f9ba45_   actor_49_interact
     00084475  GBVM$actor_49_update$e0baebe5_9b   actor_49_update
     00084475  _actor_49_update                   actor_49_update
     00084481  _actor_50_interact                 actor_50_interact
     00084494  GBVM$actor_50_interact$133ffbca_   actor_50_interact
     000844AA  GBVM$actor_50_interact$76da6451_   actor_50_interact
     000844B3  GBVM$actor_50_update$d8eca49c_57   actor_50_update
     000844B3  _actor_50_update                   actor_50_update
     000844BF  _actor_51_interact                 actor_51_interact
     000844D2  GBVM$actor_51_interact$133ffbca_   actor_51_interact
     000844E8  GBVM$actor_51_interact$76da6451_   actor_51_interact
     000844F1  GBVM$actor_51_update$d8eca49c_57   actor_51_update
     000844F1  _actor_51_update                   actor_51_update
     000844FD  _actor_52_interact                 actor_52_interact
     00084510  GBVM$actor_52_interact$133ffbca_   actor_52_interact
     00084526  GBVM$actor_52_interact$76da6451_   actor_52_interact
     0008452F  GBVM$actor_52_update$d8eca49c_57   actor_52_update
     0008452F  _actor_52_update                   actor_52_update
     0008453B  _actor_53_interact                 actor_53_interact
     0008454E  GBVM$actor_53_interact$133ffbca_   actor_53_interact
     00084564  GBVM$actor_53_interact$76da6451_   actor_53_interact
     0008456D  GBVM$actor_53_update$d8eca49c_57   actor_53_update
     0008456D  _actor_53_update                   actor_53_update
     00084579  ___func_bg_house_wide              bg_house_wide
     00084579  _bg_house_wide                     bg_house_wide
ASxxxx Linker V03.00/V05.40 + sdld,  page 63.
Hexadecimal  [32-Bits]

Area                                    Addr        Size        Decimal Bytes (Attributes)
--------------------------------        ----        ----        ------- ----- ------------
_CODE_8                             00084000    00000E9E =        3742. bytes (REL,CON)

      Value  Global                              Global Defined In Module
      -----  --------------------------------   ------------------------
     00084587  ___func_bg_house                   bg_house
     00084587  _bg_house                          bg_house
     00084595  ___func_bg_launch_site             bg_launch_site
     00084595  _bg_launch_site                    bg_launch_site
     000845A3  ___func_bg_leaving_earth           bg_leaving_earth
     000845A3  _bg_leaving_earth                  bg_leaving_earth
     000845B1  ___func_bg_logo                    bg_logo
     000845B1  _bg_logo                           bg_logo
     000845BF  ___func_bg_parallax                bg_parallax
     000845BF  _bg_parallax                       bg_parallax
     000845CD  ___func_bg_stars                   bg_stars
     000845CD  _bg_stars                          bg_stars
     000845DB  ___func_bg_titlescreen             bg_titlescreen
     000845DB  _bg_titlescreen                    bg_titlescreen
     000845E9  ___func_cursor_image               cursor_image
     000845E9  _cursor_image                      cursor_image
     000845F9  ___func_emote_shock                emote_shock
     000845F9  _emote_shock                       emote_shock
     00084639  _scene_12_p_hit1                   scene_12_p_hit1
     0008464C  GBVM$scene_12_p_hit1$a7432ec8_e5   scene_12_p_hit1
     00084667  ___func_scene_12_projectiles       scene_12_projectiles
     00084667  _scene_12_projectiles              scene_12_projectiles
     00084695  ___func_scene_12_sprites           scene_12_sprites
     00084695  _scene_12_sprites                  scene_12_sprites
     000846A4  ___func_scene_12_triggers          scene_12_triggers
     000846A4  _scene_12_triggers                 scene_12_triggers
     000846AC  ___func_scene_12                   scene_12
     000846AC  _scene_12                          scene_12
     000846E7  ___func_scene_15_actors            scene_15_actors
     000846E7  _scene_15_actors                   scene_15_actors
     0008471B  _scene_15_init                     scene_15_init
     0008471C  GBVM$scene_15_init$autofade$200c   scene_15_init
     00084728  ___func_scene_15_triggers          scene_15_triggers
     00084728  _scene_15_triggers                 scene_15_triggers
     00084738  ___func_scene_15                   scene_15
     00084738  _scene_15                          scene_15
     00084773  ___func_scene_18_sprites           scene_18_sprites
     00084773  _scene_18_sprites                  scene_18_sprites
     0008477F  ___func_scene_18_triggers          scene_18_triggers
     0008477F  _scene_18_triggers                 scene_18_triggers
     00084787  ___func_scene_18                   scene_18
     00084787  _scene_18                          scene_18
     000847C2  ___func_scene_19_sprites           scene_19_sprites
     000847C2  _scene_19_sprites                  scene_19_sprites
     000847C8  ___func_scene_19_triggers          scene_19_triggers
     000847C8  _scene_19_triggers                 scene_19_triggers
     000847D0  ___func_scene_19                   scene_19
     000847D0  _scene_19                          scene_19
     0008480B  _scene_20_init                     scene_20_init
     0008480C  GBVM$scene_20_init$autofade$6c7e   scene_20_init
     00084818  ___func_scene_20_sprites           scene_20_sprites
ASxxxx Linker V03.00/V05.40 + sdld,  page 64.
Hexadecimal  [32-Bits]

Area                                    Addr        Size        Decimal Bytes (Attributes)
--------------------------------        ----        ----        ------- ----- ------------
_CODE_8                             00084000    00000E9E =        3742. bytes (REL,CON)

      Value  Global                              Global Defined In Module
      -----  --------------------------------   ------------------------
     00084818  _scene_20_sprites                  scene_20_sprites
     00084824  ___func_scene_20_triggers          scene_20_triggers
     00084824  _scene_20_triggers                 scene_20_triggers
     00084834  ___func_scene_20                   scene_20
     00084834  _scene_20                          scene_20
     0008486F  ___func_scene_9_actors             scene_9_actors
     0008486F  _scene_9_actors                    scene_9_actors
     000848A3  _scene_9_init                      scene_9_init
     000848A4  GBVM$scene_9_init$e6d8d4d2_5def_   scene_9_init
     000848A8  GBVM$scene_9_init$autofade$16e71   scene_9_init
     000848B4  ___func_scene_9_sprites            scene_9_sprites
     000848B4  _scene_9_sprites                   scene_9_sprites
     000848B7  ___func_scene_9                    scene_9
     000848B7  _scene_9                           scene_9
     000848F2  ___func_scene_logo                 scene_logo
     000848F2  _scene_logo                        scene_logo
     0008492D  ___func_scene_title_screen         scene_title_screen
     0008492D  _scene_title_screen                scene_title_screen
     00084968  _script_enemy_ship_destroy         script_enemy_ship_destroy
     0008496A  GBVM$script_enemy_ship_destroy$2   script_enemy_ship_destroy
     00084974  GBVM$script_enemy_ship_destroy$5   script_enemy_ship_destroy
     0008497C  GBVM$script_enemy_ship_destroy$6   script_enemy_ship_destroy
     00084982  GBVM$script_enemy_ship_destroy$d   script_enemy_ship_destroy
     00084991  GBVM$script_enemy_ship_destroy$4   script_enemy_ship_destroy
     0008499D  GBVM$script_enemy_ship_destroy$7   script_enemy_ship_destroy
     000849A9  _script_enemy_ship_hit_playe       script_enemy_ship_hit_playe
     000849AB  GBVM$script_enemy_ship_hit_playe   script_enemy_ship_hit_playe
     000849C4  GBVM$script_enemy_ship_hit_playe   script_enemy_ship_hit_playe
     000849CE  GBVM$script_init_weapons$72f90b5   script_init_weapons
     000849CE  _script_init_weapons               script_init_weapons
     000849D6  GBVM_END$script_init_weapons$72f   script_init_weapons
     000849D8  _script_input                      script_input
     000849DA  GBVM$script_input$b5d82058_ed83_   script_input
     000849F7  ___func_sprite_bullet_left         sprite_bullet_left
     000849F7  _sprite_bullet_left_metasprite_0   sprite_bullet_left
     00084A03  _sprite_bullet_left_metasprite_1   sprite_bullet_left
     00084A0F  _sprite_bullet_left_metasprites    sprite_bullet_left
     00084A13  _sprite_bullet_left_animations     sprite_bullet_left
     00084A23  _sprite_bullet_left_animations_l   sprite_bullet_left
     00084A25  _sprite_bullet_left                sprite_bullet_left
     00084A38  ___func_sprite_bullet_right        sprite_bullet_right
     00084A38  _sprite_bullet_right_metasprite_   sprite_bullet_right
     00084A44  _sprite_bullet_right_metasprite_   sprite_bullet_right
     00084A50  _sprite_bullet_right_metasprites   sprite_bullet_right
     00084A54  _sprite_bullet_right_animations    sprite_bullet_right
     00084A64  _sprite_bullet_right_animations_   sprite_bullet_right
     00084A66  _sprite_bullet_right               sprite_bullet_right
     00084A79  ___func_sprite_cat                 sprite_cat
     00084A79  _sprite_cat_metasprite_0           sprite_cat
     00084A85  _sprite_cat_metasprites            sprite_cat
     00084A87  _sprite_cat_animations             sprite_cat
ASxxxx Linker V03.00/V05.40 + sdld,  page 65.
Hexadecimal  [32-Bits]

Area                                    Addr        Size        Decimal Bytes (Attributes)
--------------------------------        ----        ----        ------- ----- ------------
_CODE_8                             00084000    00000E9E =        3742. bytes (REL,CON)

      Value  Global                              Global Defined In Module
      -----  --------------------------------   ------------------------
     00084A97  _sprite_cat_animations_lookup      sprite_cat
     00084A99  _sprite_cat                        sprite_cat
     00084AAC  ___func_sprite_hidden_stairs       sprite_hidden_stairs
     00084AAC  _sprite_hidden_stairs_metasprite   sprite_hidden_stairs
     00084AB8  _sprite_hidden_stairs_metasprite   sprite_hidden_stairs
     00084ABA  _sprite_hidden_stairs_animations   sprite_hidden_stairs
     00084ACA  _sprite_hidden_stairs_animations   sprite_hidden_stairs
     00084ACC  _sprite_hidden_stairs              sprite_hidden_stairs
     00084ADF  ___func_sprite_keyboard            sprite_keyboard
     00084ADF  _sprite_keyboard_metasprite_0      sprite_keyboard
     00084AF3  _sprite_keyboard_metasprites       sprite_keyboard
     00084AF5  _sprite_keyboard_animations        sprite_keyboard
     00084B05  _sprite_keyboard_animations_look   sprite_keyboard
     00084B07  _sprite_keyboard                   sprite_keyboard
     00084B1A  ___func_sprite_machine             sprite_machine
     00084B1A  _sprite_machine_metasprite_0       sprite_machine
     00084B26  _sprite_machine_metasprite_1       sprite_machine
     00084B32  _sprite_machine_metasprites        sprite_machine
     00084B36  _sprite_machine_animations         sprite_machine
     00084B46  _sprite_machine_animations_looku   sprite_machine
     00084B48  _sprite_machine                    sprite_machine
     00084B5B  ___func_sprite_npc008              sprite_npc008
     00084B5B  _sprite_npc008_metasprite_0        sprite_npc008
     00084B67  _sprite_npc008_metasprite_1        sprite_npc008
     00084B73  _sprite_npc008_metasprites         sprite_npc008
     00084B77  _sprite_npc008_animations          sprite_npc008
     00084B87  _sprite_npc008_animations_lookup   sprite_npc008
     00084B89  _sprite_npc008                     sprite_npc008
     00084B9C  ___func_sprite_rock                sprite_rock
     00084B9C  _sprite_rock_metasprite_0          sprite_rock
     00084BA8  _sprite_rock_metasprites           sprite_rock
     00084BAA  _sprite_rock_animations            sprite_rock
     00084BBA  _sprite_rock_animations_lookup     sprite_rock
     00084BBC  _sprite_rock                       sprite_rock
     00084BCF  ___func_sprite_savepoint           sprite_savepoint
     00084BCF  _sprite_savepoint_metasprite_0     sprite_savepoint
     00084BDB  _sprite_savepoint_metasprite_1     sprite_savepoint
     00084BE7  _sprite_savepoint_metasprites      sprite_savepoint
     00084BEB  _sprite_savepoint_animations       sprite_savepoint
     00084BFB  _sprite_savepoint_animations_loo   sprite_savepoint
     00084BFD  _sprite_savepoint                  sprite_savepoint
     00084C10  ___func_sprite_signpost_tileset    sprite_signpost_tileset
     00084C10  _sprite_signpost_tileset           sprite_signpost_tileset
     00084C52  ___func_sprite_signpost            sprite_signpost
     00084C52  _sprite_signpost_metasprite_0      sprite_signpost
     00084C5E  _sprite_signpost_metasprites       sprite_signpost
     00084C60  _sprite_signpost_animations        sprite_signpost
     00084C70  _sprite_signpost_animations_look   sprite_signpost
     00084C72  _sprite_signpost                   sprite_signpost
     00084C85  ___func_sprite_ui_weapon_tileset   sprite_ui_weapon_tileset
     00084C85  _sprite_ui_weapon_tileset          sprite_ui_weapon_tileset
ASxxxx Linker V03.00/V05.40 + sdld,  page 66.
Hexadecimal  [32-Bits]

Area                                    Addr        Size        Decimal Bytes (Attributes)
--------------------------------        ----        ----        ------- ----- ------------
_CODE_8                             00084000    00000E9E =        3742. bytes (REL,CON)

      Value  Global                              Global Defined In Module
      -----  --------------------------------   ------------------------
     00084CC7  ___func_sprite_ui_weapon           sprite_ui_weapon
     00084CC7  _sprite_ui_weapon_metasprite_0     sprite_ui_weapon
     00084CD3  _sprite_ui_weapon_metasprites      sprite_ui_weapon
     00084CD5  _sprite_ui_weapon_animations       sprite_ui_weapon
     00084CE5  _sprite_ui_weapon_animations_loo   sprite_ui_weapon
     00084CE7  _sprite_ui_weapon                  sprite_ui_weapon
     00084CFA  _spritesheet_none_metasprite       spritesheet_none
     00084CFE  _spritesheet_none_metasprites      spritesheet_none
     00084D00  _spritesheet_none                  spritesheet_none
     00084D13  _trigger_14_interact               trigger_14_interact
     00084D16  GBVM$trigger_14_interact$a664738   trigger_14_interact
     00084D49  _trigger_15_interact               trigger_15_interact
     00084D4C  GBVM$trigger_15_interact$4a0cff3   trigger_15_interact
     00084D7F  _trigger_42_interact               trigger_42_interact
     00084D82  GBVM$trigger_42_interact$7560865   trigger_42_interact
     00084DB5  _trigger_43_interact               trigger_43_interact
     00084DB8  GBVM$trigger_43_interact$36c0f4e   trigger_43_interact
     00084DEB  _trigger_44_interact               trigger_44_interact
     00084DEE  GBVM$trigger_44_interact$d6e0f8c   trigger_44_interact
     00084E21  _trigger_45_interact               trigger_45_interact
     00084E24  GBVM$trigger_45_interact$dc4137f   trigger_45_interact
     00084E57  _trigger_46_interact               trigger_46_interact
     00084E5A  GBVM$trigger_46_interact$18ab95b   trigger_46_interact
     00084E8D  _logo_init                         logo
     00084E9D  _logo_update                       logo
ASxxxx Linker V03.00/V05.40 + sdld,  page 67.
Hexadecimal  [32-Bits]

Area                                    Addr        Size        Decimal Bytes (Attributes)
--------------------------------        ----        ----        ------- ----- ------------
_HEADER_SIO0                        00000000    00000004 =           4. bytes (ABS,CON)

      Value  Global                              Global Defined In Module
      -----  --------------------------------   ------------------------
ASxxxx Linker V03.00/V05.40 + sdld,  page 68.
Hexadecimal  [32-Bits]

Area                                    Addr        Size        Decimal Bytes (Attributes)
--------------------------------        ----        ----        ------- ----- ------------
_HEADER_TIMER0                      00000000    00000004 =           4. bytes (ABS,CON)

      Value  Global                              Global Defined In Module
      -----  --------------------------------   ------------------------
ASxxxx Linker V03.00/V05.40 + sdld,  page 69.
Hexadecimal  [32-Bits]

Area                                    Addr        Size        Decimal Bytes (Attributes)
--------------------------------        ----        ----        ------- ----- ------------
_CODE_5                             00054000    00004000 =       16384. bytes (REL,CON)

      Value  Global                              Global Defined In Module
      -----  --------------------------------   ------------------------
     00054000  _projectiles_init                  projectiles
     0005402F  _projectile_launch                 projectiles
     00054429  ___func_VM_GAMEBOY                 vm_gameboy
     00054429  _vm_set_sprites_visible            vm_gameboy
     00054440  _vm_input_wait                     vm_gameboy
     00054469  _vm_context_prepare                vm_gameboy
     00054494  _vm_input_attach                   vm_gameboy
     000544AA  _vm_input_detach                   vm_gameboy
     000544BE  _vm_input_get                      vm_gameboy
     000544F2  _vm_fade                           vm_gameboy
     00054522  _vm_timer_prepare                  vm_gameboy
     0005454D  _vm_timer_set                      vm_gameboy
     00054568  _vm_timer_stop                     vm_gameboy
     0005457C  _vm_timer_reset                    vm_gameboy
     00054593  _vm_get_tile_xy                    vm_gameboy
     00054669  _vm_replace_tile                   vm_gameboy
     00054714  _vm_poll                           vm_gameboy
     000547E6  _vm_set_sprite_mode                vm_gameboy
     000547FA  _vm_replace_tile_xy                vm_gameboy
     000549DA  _vm_rumble                         vm_gameboy
     000549FA  _vm_load_tileset                   vm_gameboy
     00054ACB  ___func_VM_UI                      vm_ui
     00054ACB  _vm_display_text                   vm_ui
     00054B34  _vm_switch_text_layer              vm_ui
     00054B4E  _vm_overlay_setpos                 vm_ui
     00054B68  _vm_overlay_wait                   vm_ui
     00054BF8  _vm_overlay_move_to                vm_ui
     00054C3C  _vm_overlay_set_scroll             vm_ui
     00054C75  _vm_overlay_clear                  vm_ui
     00054D47  _vm_overlay_show                   vm_ui
     00054D95  _vm_choice                         vm_ui
     00054EB0  _vm_set_font                       vm_ui
     00054EDF  _vm_overlay_scroll                 vm_ui
     00054F40  _vm_overlay_set_submap             vm_ui
     00054FAC  _vm_overlay_set_submap_ex          vm_ui
     000550AD  _vm_overlay_set_map                vm_ui
     0005520C  _vm_set_text_sound                 vm_ui
     00055225  ___func_bg_launch_site_tileset     bg_launch_site_tileset
     00055225  _bg_launch_site_tileset            bg_launch_site_tileset
     000557C7  ___func_bg_logo_tileset            bg_logo_tileset
     000557C7  _bg_logo_tileset                   bg_logo_tileset
     00055CC9  ___func_bg_parallax_tilemap_attr   bg_parallax_tilemap_attr
     00055CC9  _bg_parallax_tilemap_attr          bg_parallax_tilemap_attr
     00056269  ___func_bg_parallax_tilemap        bg_parallax_tilemap
     00056269  _bg_parallax_tilemap               bg_parallax_tilemap
     00056809  ___func_bg_titlescreen_tileset     bg_titlescreen_tileset
     00056809  _bg_titlescreen_tileset            bg_titlescreen_tileset
     00056E8B  ___func_scene_12_actors            scene_12_actors
     00056E8B  _scene_12_actors                   scene_12_actors
     0005729B  ___func_scene_19_collisions        scene_19_collisions
ASxxxx Linker V03.00/V05.40 + sdld,  page 70.
Hexadecimal  [32-Bits]

Area                                    Addr        Size        Decimal Bytes (Attributes)
--------------------------------        ----        ----        ------- ----- ------------
_CODE_5                             00054000    00004000 =       16384. bytes (REL,CON)

      Value  Global                              Global Defined In Module
      -----  --------------------------------   ------------------------
     0005729B  _scene_19_collisions               scene_19_collisions
     0005783B  ___func_sprite_hidden_stairs_til   sprite_hidden_stairs_tileset
     0005783B  _sprite_hidden_stairs_tileset      sprite_hidden_stairs_tileset
     0005785D  _shmup_init                        shmup
     000578FA  _shmup_update                      shmup

ASxxxx Linker V03.00/V05.40 + sdld,  page 71.
Hexadecimal  [32-Bits]

Area                                    Addr        Size        Decimal Bytes (Attributes)
--------------------------------        ----        ----        ------- ----- ------------
_CODE_3                             00034000    00003FFE =       16382. bytes (REL,CON)

      Value  Global                              Global Defined In Module
      -----  --------------------------------   ------------------------
     00034000  ___func_bg_house_tileset           bg_house_tileset
     00034000  _bg_house_tileset                  bg_house_tileset
     000340F2  ___func_bg_leaving_earth_tilemap   bg_leaving_earth_tilemap
     000340F2  _bg_leaving_earth_tilemap          bg_leaving_earth_tilemap
     00035DB7  _song_drum_example_Data            song_drum_example_Data
     00036DFB  _song_rulz_battletheme_0_Data      song_rulz_battletheme_0_Data
     00036E10  ___func_scene_12_collisions        scene_12_collisions
     00036E10  _scene_12_collisions               scene_12_collisions

ASxxxx Linker V03.00/V05.40 + sdld,  page 72.
Hexadecimal  [32-Bits]

Area                                    Addr        Size        Decimal Bytes (Attributes)
--------------------------------        ----        ----        ------- ----- ------------
_HEADER_LCD0                        00000000    00000003 =           3. bytes (ABS,CON)

      Value  Global                              Global Defined In Module
      -----  --------------------------------   ------------------------
ASxxxx Linker V03.00/V05.40 + sdld,  page 73.

Files Linked                              [ module(s) ]

C:\tmp/_gbstools/gbdk/lib/gb/crt0.o       [ Runtime ]
C:/tmp/_gbsbuild/obj/absolute.rel         [ absolute ]
C:/tmp/_gbsbuild/obj/actor.rel            [ actor ]
C:/tmp/_gbsbuild/obj/bankdata.rel         [ bankdata ]
C:/tmp/_gbsbuild/obj/bootstrap.rel        [  ]
C:/tmp/_gbsbuild/obj/camera.rel           [ camera ]
C:/tmp/_gbsbuild/obj/core.rel             [ core ]
C:/tmp/_gbsbuild/obj/crash_handler.rel    [  ]
C:/tmp/_gbsbuild/obj/data_manager.rel     [ data_manager ]
C:/tmp/_gbsbuild/obj/events.rel           [ events ]
C:/tmp/_gbsbuild/obj/fade_manager.rel     [ fade_manager ]
C:/tmp/_gbsbuild/obj/flasher_s.rel        [  ]
C:/tmp/_gbsbuild/obj/flasher.rel          [ flasher ]
C:/tmp/_gbsbuild/obj/game_time.rel        [ game_time ]
C:/tmp/_gbsbuild/obj/gbprinter.rel        [ gbprinter ]
C:/tmp/_gbsbuild/obj/input.rel            [ input ]
C:/tmp/_gbsbuild/obj/interrupt_sio.rel    [  ]
C:/tmp/_gbsbuild/obj/interrupt_timer.rel  [  ]
C:/tmp/_gbsbuild/obj/interrupts.rel       [ interrupts ]
C:/tmp/_gbsbuild/obj/load_save.rel        [ load_save ]
C:/tmp/_gbsbuild/obj/math_atan2.rel       [ math_atan2 ]
C:/tmp/_gbsbuild/obj/math.rel             [ math ]
C:/tmp/_gbsbuild/obj/music_manager.rel    [ music_manager ]
C:/tmp/_gbsbuild/obj/palette.rel          [ palette ]
C:/tmp/_gbsbuild/obj/parallax.rel         [ parallax ]
C:/tmp/_gbsbuild/obj/projectiles.rel      [ projectiles ]
C:/tmp/_gbsbuild/obj/scroll_a.rel         [  ]
C:/tmp/_gbsbuild/obj/scroll.rel           [ scroll ]
C:/tmp/_gbsbuild/obj/set_tile_submap.rel  [  ]
C:/tmp/_gbsbuild/obj/sfx_player.rel       [ sfx_player ]
C:/tmp/_gbsbuild/obj/sgb_border.rel       [ sgb_border ]
C:/tmp/_gbsbuild/obj/sio.rel              [ sio ]
C:/tmp/_gbsbuild/obj/states_caller.rel    [  ]
C:/tmp/_gbsbuild/obj/system.rel           [ system ]
C:/tmp/_gbsbuild/obj/trigger.rel          [ trigger ]
C:/tmp/_gbsbuild/obj/ui_a.rel             [  ]
C:/tmp/_gbsbuild/obj/ui.rel               [ ui ]
C:/tmp/_gbsbuild/obj/vm_actor.rel         [ vm_actor ]
C:/tmp/_gbsbuild/obj/vm_camera.rel        [ vm_camera ]
C:/tmp/_gbsbuild/obj/vm_gameboy.rel       [ vm_gameboy ]
C:/tmp/_gbsbuild/obj/vm_gbprinter.rel     [ vm_gbprinter ]
C:/tmp/_gbsbuild/obj/vm_instructions.rel  [ vm_instructions ]
C:/tmp/_gbsbuild/obj/vm_load_save.rel     [ vm_load_save ]
C:/tmp/_gbsbuild/obj/vm_math.rel          [ vm_math ]
C:/tmp/_gbsbuild/obj/vm_music.rel         [ vm_music ]
C:/tmp/_gbsbuild/obj/vm_palette.rel       [ vm_palette ]
C:/tmp/_gbsbuild/obj/vm_projectiles.rel   [ vm_projectiles ]
C:/tmp/_gbsbuild/obj/vm_rtc.rel           [ vm_rtc ]
C:/tmp/_gbsbuild/obj/vm_scene.rel         [ vm_scene ]
C:/tmp/_gbsbuild/obj/vm_sgb.rel           [ vm_sgb ]
C:/tmp/_gbsbuild/obj/vm_sio.rel           [ vm_sio ]
C:/tmp/_gbsbuild/obj/vm_ui_a.rel          [ vm_ui_a ]
C:/tmp/_gbsbuild/obj/vm_ui.rel            [ vm_ui ]
C:/tmp/_gbsbuild/obj/vm.rel               [ vm ]
C:/tmp/_gbsbuild/obj/actor_0_interact.rel
                                          [ actor_0_interact ]
C:/tmp/_gbsbuild/obj/actor_18_interact.rel
                                          [ actor_18_interact ]
C:/tmp/_gbsbuild/obj/actor_18_update.rel  [ actor_18_update ]
C:/tmp/_gbsbuild/obj/actor_19_interact.rel
                                          [ actor_19_interact ]
C:/tmp/_gbsbuild/obj/actor_19_update.rel  [ actor_19_update ]
C:/tmp/_gbsbuild/obj/actor_20_interact.rel
                                          [ actor_20_interact ]
C:/tmp/_gbsbuild/obj/actor_20_update.rel  [ actor_20_update ]
C:/tmp/_gbsbuild/obj/actor_21_interact.rel
                                          [ actor_21_interact ]
C:/tmp/_gbsbuild/obj/actor_21_update.rel  [ actor_21_update ]
C:/tmp/_gbsbuild/obj/actor_22_interact.rel
                                          [ actor_22_interact ]
C:/tmp/_gbsbuild/obj/actor_22_update.rel  [ actor_22_update ]
C:/tmp/_gbsbuild/obj/actor_23_interact.rel
                                          [ actor_23_interact ]
C:/tmp/_gbsbuild/obj/actor_23_update.rel  [ actor_23_update ]
C:/tmp/_gbsbuild/obj/actor_24_interact.rel
                                          [ actor_24_interact ]
C:/tmp/_gbsbuild/obj/actor_24_update.rel  [ actor_24_update ]
C:/tmp/_gbsbuild/obj/actor_25_interact.rel
                                          [ actor_25_interact ]
C:/tmp/_gbsbuild/obj/actor_25_update.rel  [ actor_25_update ]
C:/tmp/_gbsbuild/obj/actor_26_interact.rel
                                          [ actor_26_interact ]
C:/tmp/_gbsbuild/obj/actor_26_update.rel  [ actor_26_update ]
C:/tmp/_gbsbuild/obj/actor_28_interact.rel
                                          [ actor_28_interact ]
C:/tmp/_gbsbuild/obj/actor_29_interact.rel
                                          [ actor_29_interact ]
C:/tmp/_gbsbuild/obj/actor_30_interact.rel
                                          [ actor_30_interact ]
C:/tmp/_gbsbuild/obj/actor_31_interact.rel
                                          [ actor_31_interact ]
C:/tmp/_gbsbuild/obj/actor_31_update.rel  [ actor_31_update ]
C:/tmp/_gbsbuild/obj/actor_32_interact.rel
                                          [ actor_32_interact ]
C:/tmp/_gbsbuild/obj/actor_33_interact.rel
                                          [ actor_33_interact ]
C:/tmp/_gbsbuild/obj/actor_33_update.rel  [ actor_33_update ]
C:/tmp/_gbsbuild/obj/actor_34_interact.rel
                                          [ actor_34_interact ]
C:/tmp/_gbsbuild/obj/actor_34_update.rel  [ actor_34_update ]
C:/tmp/_gbsbuild/obj/actor_42_interact.rel
                                          [ actor_42_interact ]
C:/tmp/_gbsbuild/obj/actor_43_interact.rel
                                          [ actor_43_interact ]
C:/tmp/_gbsbuild/obj/actor_44_interact.rel
                                          [ actor_44_interact ]
C:/tmp/_gbsbuild/obj/actor_44_update.rel  [ actor_44_update ]
C:/tmp/_gbsbuild/obj/actor_45_interact.rel
                                          [ actor_45_interact ]
C:/tmp/_gbsbuild/obj/actor_45_update.rel  [ actor_45_update ]
C:/tmp/_gbsbuild/obj/actor_46_interact.rel
                                          [ actor_46_interact ]
C:/tmp/_gbsbuild/obj/actor_46_update.rel  [ actor_46_update ]
C:/tmp/_gbsbuild/obj/actor_47_interact.rel
                                          [ actor_47_interact ]
C:/tmp/_gbsbuild/obj/actor_47_update.rel  [ actor_47_update ]
C:/tmp/_gbsbuild/obj/actor_48_interact.rel
                                          [ actor_48_interact ]
C:/tmp/_gbsbuild/obj/actor_48_update.rel  [ actor_48_update ]
C:/tmp/_gbsbuild/obj/actor_49_interact.rel
                                          [ actor_49_interact ]
C:/tmp/_gbsbuild/obj/actor_49_update.rel  [ actor_49_update ]
C:/tmp/_gbsbuild/obj/actor_50_interact.rel
                                          [ actor_50_interact ]
C:/tmp/_gbsbuild/obj/actor_50_update.rel  [ actor_50_update ]
C:/tmp/_gbsbuild/obj/actor_51_interact.rel
                                          [ actor_51_interact ]
C:/tmp/_gbsbuild/obj/actor_51_update.rel  [ actor_51_update ]
C:/tmp/_gbsbuild/obj/actor_52_interact.rel
                                          [ actor_52_interact ]
C:/tmp/_gbsbuild/obj/actor_52_update.rel  [ actor_52_update ]
C:/tmp/_gbsbuild/obj/actor_53_interact.rel
                                          [ actor_53_interact ]
C:/tmp/_gbsbuild/obj/actor_53_update.rel  [ actor_53_update ]
C:/tmp/_gbsbuild/obj/actor_54_interact.rel
                                          [ actor_54_interact ]
C:/tmp/_gbsbuild/obj/bg_house_tilemap_attr.rel
                                          [ bg_house_tilemap_attr ]
C:/tmp/_gbsbuild/obj/bg_house_tilemap.rel
                                          [ bg_house_tilemap ]
C:/tmp/_gbsbuild/obj/bg_house_tileset.rel
                                          [ bg_house_tileset ]
C:/tmp/_gbsbuild/obj/bg_house_wide_tilemap_attr.rel
                                          [ bg_house_wide_tilemap_attr ]
C:/tmp/_gbsbuild/obj/bg_house_wide_tilemap.rel
                                          [ bg_house_wide_tilemap ]
C:/tmp/_gbsbuild/obj/bg_house_wide_tileset.rel
                                          [ bg_house_wide_tileset ]
C:/tmp/_gbsbuild/obj/bg_house_wide.rel    [ bg_house_wide ]
C:/tmp/_gbsbuild/obj/bg_house.rel         [ bg_house ]
C:/tmp/_gbsbuild/obj/bg_launch_site_tilemap_attr.rel
                                          [ bg_launch_site_tilemap_attr ]
C:/tmp/_gbsbuild/obj/bg_launch_site_tilemap.rel
                                          [ bg_launch_site_tilemap ]
C:/tmp/_gbsbuild/obj/bg_launch_site_tileset.rel
                                          [ bg_launch_site_tileset ]
C:/tmp/_gbsbuild/obj/bg_launch_site.rel   [ bg_launch_site ]
C:/tmp/_gbsbuild/obj/bg_leaving_earth_tilemap_attr.rel
                                          [ bg_leaving_earth_tilemap_attr ]
C:/tmp/_gbsbuild/obj/bg_leaving_earth_tilemap.rel
                                          [ bg_leaving_earth_tilemap ]
C:/tmp/_gbsbuild/obj/bg_leaving_earth_tileset.rel
                                          [ bg_leaving_earth_tileset ]
C:/tmp/_gbsbuild/obj/bg_leaving_earth.rel
                                          [ bg_leaving_earth ]
C:/tmp/_gbsbuild/obj/bg_logo_tilemap_attr.rel
                                          [ bg_logo_tilemap_attr ]
C:/tmp/_gbsbuild/obj/bg_logo_tilemap.rel  [ bg_logo_tilemap ]
C:/tmp/_gbsbuild/obj/bg_logo_tileset.rel  [ bg_logo_tileset ]
C:/tmp/_gbsbuild/obj/bg_logo.rel          [ bg_logo ]
C:/tmp/_gbsbuild/obj/bg_parallax_tilemap_attr.rel
                                          [ bg_parallax_tilemap_attr ]
C:/tmp/_gbsbuild/obj/bg_parallax_tilemap.rel
                                          [ bg_parallax_tilemap ]
C:/tmp/_gbsbuild/obj/bg_parallax_tileset.rel
                                          [ bg_parallax_tileset ]
C:/tmp/_gbsbuild/obj/bg_parallax.rel      [ bg_parallax ]
C:/tmp/_gbsbuild/obj/bg_stars_tilemap_attr.rel
                                          [ bg_stars_tilemap_attr ]
C:/tmp/_gbsbuild/obj/bg_stars_tilemap.rel
                                          [ bg_stars_tilemap ]
C:/tmp/_gbsbuild/obj/bg_stars_tileset.rel
                                          [ bg_stars_tileset ]
C:/tmp/_gbsbuild/obj/bg_stars.rel         [ bg_stars ]
C:/tmp/_gbsbuild/obj/bg_titlescreen_tilemap_attr.rel
                                          [ bg_titlescreen_tilemap_attr ]
C:/tmp/_gbsbuild/obj/bg_titlescreen_tilemap.rel
                                          [ bg_titlescreen_tilemap ]
C:/tmp/_gbsbuild/obj/bg_titlescreen_tileset.rel
                                          [ bg_titlescreen_tileset ]
C:/tmp/_gbsbuild/obj/bg_titlescreen.rel   [ bg_titlescreen ]
C:/tmp/_gbsbuild/obj/cursor_image.rel     [ cursor_image ]
C:/tmp/_gbsbuild/obj/emote_shock.rel      [ emote_shock ]
C:/tmp/_gbsbuild/obj/font_gbs_variable_width.rel
                                          [ font_gbs_variable_width ]
C:/tmp/_gbsbuild/obj/frame_image.rel      [ frame_image ]
C:/tmp/_gbsbuild/obj/game_signature.rel   [ game_signature ]
C:/tmp/_gbsbuild/obj/song_drum_example_Data.rel
                                          [ song_drum_example_Data ]
C:/tmp/_gbsbuild/obj/song_rulz_battletheme_0_Data.rel
                                          [ song_rulz_battletheme_0_Data ]
C:/tmp/_gbsbuild/obj/song_rulz_intro_0_Data.rel
                                          [ song_rulz_intro_0_Data ]
C:/tmp/_gbsbuild/obj/song_rulz_lightmood_0_Data.rel
                                          [ song_rulz_lightmood_0_Data ]
C:/tmp/_gbsbuild/obj/palette_0.rel        [ palette_0 ]
C:/tmp/_gbsbuild/obj/palette_1.rel        [ palette_1 ]
C:/tmp/_gbsbuild/obj/palette_2.rel        [ palette_2 ]
C:/tmp/_gbsbuild/obj/scene_12_actors.rel  [ scene_12_actors ]
C:/tmp/_gbsbuild/obj/scene_12_collisions.rel
                                          [ scene_12_collisions ]
C:/tmp/_gbsbuild/obj/scene_12_init.rel    [ scene_12_init ]
C:/tmp/_gbsbuild/obj/scene_12_p_hit1.rel  [ scene_12_p_hit1 ]
C:/tmp/_gbsbuild/obj/scene_12_projectiles.rel
                                          [ scene_12_projectiles ]
C:/tmp/_gbsbuild/obj/scene_12_sprites.rel
                                          [ scene_12_sprites ]
C:/tmp/_gbsbuild/obj/scene_12_triggers.rel
                                          [ scene_12_triggers ]
C:/tmp/_gbsbuild/obj/scene_12.rel         [ scene_12 ]
C:/tmp/_gbsbuild/obj/scene_15_actors.rel  [ scene_15_actors ]
C:/tmp/_gbsbuild/obj/scene_15_collisions.rel
                                          [ scene_15_collisions ]
C:/tmp/_gbsbuild/obj/scene_15_init.rel    [ scene_15_init ]
C:/tmp/_gbsbuild/obj/scene_15_sprites.rel
                                          [ scene_15_sprites ]
C:/tmp/_gbsbuild/obj/scene_15_triggers.rel
                                          [ scene_15_triggers ]
C:/tmp/_gbsbuild/obj/scene_15.rel         [ scene_15 ]
C:/tmp/_gbsbuild/obj/scene_18_actors.rel  [ scene_18_actors ]
C:/tmp/_gbsbuild/obj/scene_18_collisions.rel
                                          [ scene_18_collisions ]
C:/tmp/_gbsbuild/obj/scene_18_init.rel    [ scene_18_init ]
C:/tmp/_gbsbuild/obj/scene_18_sprites.rel
                                          [ scene_18_sprites ]
C:/tmp/_gbsbuild/obj/scene_18_triggers.rel
                                          [ scene_18_triggers ]
C:/tmp/_gbsbuild/obj/scene_18.rel         [ scene_18 ]
C:/tmp/_gbsbuild/obj/scene_19_actors.rel  [ scene_19_actors ]
C:/tmp/_gbsbuild/obj/scene_19_collisions.rel
                                          [ scene_19_collisions ]
C:/tmp/_gbsbuild/obj/scene_19_init.rel    [ scene_19_init ]
C:/tmp/_gbsbuild/obj/scene_19_sprites.rel
                                          [ scene_19_sprites ]
C:/tmp/_gbsbuild/obj/scene_19_triggers.rel
                                          [ scene_19_triggers ]
C:/tmp/_gbsbuild/obj/scene_19.rel         [ scene_19 ]
C:/tmp/_gbsbuild/obj/scene_20_actors.rel  [ scene_20_actors ]
C:/tmp/_gbsbuild/obj/scene_20_collisions.rel
                                          [ scene_20_collisions ]
C:/tmp/_gbsbuild/obj/scene_20_init.rel    [ scene_20_init ]
C:/tmp/_gbsbuild/obj/scene_20_sprites.rel
                                          [ scene_20_sprites ]
C:/tmp/_gbsbuild/obj/scene_20_triggers.rel
                                          [ scene_20_triggers ]
C:/tmp/_gbsbuild/obj/scene_20.rel         [ scene_20 ]
C:/tmp/_gbsbuild/obj/scene_9_actors.rel   [ scene_9_actors ]
C:/tmp/_gbsbuild/obj/scene_9_collisions.rel
                                          [ scene_9_collisions ]
C:/tmp/_gbsbuild/obj/scene_9_init.rel     [ scene_9_init ]
C:/tmp/_gbsbuild/obj/scene_9_sprites.rel  [ scene_9_sprites ]
C:/tmp/_gbsbuild/obj/scene_9.rel          [ scene_9 ]
C:/tmp/_gbsbuild/obj/scene_logo_collisions.rel
                                          [ scene_logo_collisions ]
C:/tmp/_gbsbuild/obj/scene_logo_init.rel  [ scene_logo_init ]
C:/tmp/_gbsbuild/obj/scene_logo.rel       [ scene_logo ]
C:/tmp/_gbsbuild/obj/scene_title_screen_collisions.rel
                                          [ scene_title_screen_collisions ]
C:/tmp/_gbsbuild/obj/scene_title_screen_init.rel
                                          [ scene_title_screen_init ]
C:/tmp/_gbsbuild/obj/scene_title_screen.rel
                                          [ scene_title_screen ]
C:/tmp/_gbsbuild/obj/script_enemy_ship_destroy.rel
                                          [ script_enemy_ship_destroy ]
C:/tmp/_gbsbuild/obj/script_enemy_ship_hit_playe.rel
                                          [ script_enemy_ship_hit_playe ]
C:/tmp/_gbsbuild/obj/script_enemy_ship_movement__0.rel
                                          [ script_enemy_ship_movement__0 ]
C:/tmp/_gbsbuild/obj/script_enemy_ship_movement__1.rel
                                          [ script_enemy_ship_movement__1 ]
C:/tmp/_gbsbuild/obj/script_enemy_ship_movement__2.rel
                                          [ script_enemy_ship_movement__2 ]
C:/tmp/_gbsbuild/obj/script_enemy_ship_movement_.rel
                                          [ script_enemy_ship_movement_ ]
C:/tmp/_gbsbuild/obj/script_engine_init.rel
                                          [  ]
C:/tmp/_gbsbuild/obj/script_init_weapons.rel
                                          [ script_init_weapons ]
C:/tmp/_gbsbuild/obj/script_input.rel     [ script_input ]
C:/tmp/_gbsbuild/obj/sound_gbstudio_sfx_sav.rel
                                          [ sound_gbstudio_sfx_sav ]
C:/tmp/_gbsbuild/obj/sound_legacy_0.rel   [ sound_legacy_0 ]
C:/tmp/_gbsbuild/obj/sprite_bullet_left_tileset.rel
                                          [ sprite_bullet_left_tileset ]
C:/tmp/_gbsbuild/obj/sprite_bullet_left.rel
                                          [ sprite_bullet_left ]
C:/tmp/_gbsbuild/obj/sprite_bullet_right_tileset.rel
                                          [ sprite_bullet_right_tileset ]
C:/tmp/_gbsbuild/obj/sprite_bullet_right.rel
                                          [ sprite_bullet_right ]
C:/tmp/_gbsbuild/obj/sprite_cat_tileset.rel
                                          [ sprite_cat_tileset ]
C:/tmp/_gbsbuild/obj/sprite_cat.rel       [ sprite_cat ]
C:/tmp/_gbsbuild/obj/sprite_enemy_ship_tileset.rel
                                          [ sprite_enemy_ship_tileset ]
C:/tmp/_gbsbuild/obj/sprite_enemy_ship.rel
                                          [ sprite_enemy_ship ]
C:/tmp/_gbsbuild/obj/sprite_hidden_stairs_tileset.rel
                                          [ sprite_hidden_stairs_tileset ]
C:/tmp/_gbsbuild/obj/sprite_hidden_stairs.rel
                                          [ sprite_hidden_stairs ]
C:/tmp/_gbsbuild/obj/sprite_keyboard_tileset.rel
                                          [ sprite_keyboard_tileset ]
C:/tmp/_gbsbuild/obj/sprite_keyboard.rel  [ sprite_keyboard ]
C:/tmp/_gbsbuild/obj/sprite_machine_tileset.rel
                                          [ sprite_machine_tileset ]
C:/tmp/_gbsbuild/obj/sprite_machine.rel   [ sprite_machine ]
C:/tmp/_gbsbuild/obj/sprite_npc004_tileset.rel
                                          [ sprite_npc004_tileset ]
C:/tmp/_gbsbuild/obj/sprite_npc004.rel    [ sprite_npc004 ]
C:/tmp/_gbsbuild/obj/sprite_npc008_tileset.rel
                                          [ sprite_npc008_tileset ]
C:/tmp/_gbsbuild/obj/sprite_npc008.rel    [ sprite_npc008 ]
C:/tmp/_gbsbuild/obj/sprite_player_platform_tileset.rel
                                          [ sprite_player_platform_tileset ]
C:/tmp/_gbsbuild/obj/sprite_player_platform.rel
                                          [ sprite_player_platform ]
C:/tmp/_gbsbuild/obj/sprite_player_ship_tileset.rel
                                          [ sprite_player_ship_tileset ]
C:/tmp/_gbsbuild/obj/sprite_player_ship.rel
                                          [ sprite_player_ship ]
C:/tmp/_gbsbuild/obj/sprite_player_tileset.rel
                                          [ sprite_player_tileset ]
C:/tmp/_gbsbuild/obj/sprite_player.rel    [ sprite_player ]
C:/tmp/_gbsbuild/obj/sprite_rock_tileset.rel
                                          [ sprite_rock_tileset ]
C:/tmp/_gbsbuild/obj/sprite_rock.rel      [ sprite_rock ]
C:/tmp/_gbsbuild/obj/sprite_savepoint_tileset.rel
                                          [ sprite_savepoint_tileset ]
C:/tmp/_gbsbuild/obj/sprite_savepoint.rel
                                          [ sprite_savepoint ]
C:/tmp/_gbsbuild/obj/sprite_signpost_tileset.rel
                                          [ sprite_signpost_tileset ]
C:/tmp/_gbsbuild/obj/sprite_signpost.rel  [ sprite_signpost ]
C:/tmp/_gbsbuild/obj/sprite_space_mine_tileset.rel
                                          [ sprite_space_mine_tileset ]
C:/tmp/_gbsbuild/obj/sprite_space_mine.rel
                                          [ sprite_space_mine ]
C:/tmp/_gbsbuild/obj/sprite_turnip_tileset.rel
                                          [ sprite_turnip_tileset ]
C:/tmp/_gbsbuild/obj/sprite_turnip.rel    [ sprite_turnip ]
C:/tmp/_gbsbuild/obj/sprite_ui_weapon_tileset.rel
                                          [ sprite_ui_weapon_tileset ]
C:/tmp/_gbsbuild/obj/sprite_ui_weapon.rel
                                          [ sprite_ui_weapon ]
C:/tmp/_gbsbuild/obj/spritesheet_none.rel
                                          [ spritesheet_none ]
C:/tmp/_gbsbuild/obj/tileset_default_frame.rel
                                          [ tileset_default_frame ]
C:/tmp/_gbsbuild/obj/trigger_14_interact.rel
                                          [ trigger_14_interact ]
C:/tmp/_gbsbuild/obj/trigger_15_interact.rel
                                          [ trigger_15_interact ]
C:/tmp/_gbsbuild/obj/trigger_42_interact.rel
                                          [ trigger_42_interact ]
C:/tmp/_gbsbuild/obj/trigger_43_interact.rel
                                          [ trigger_43_interact ]
C:/tmp/_gbsbuild/obj/trigger_44_interact.rel
                                          [ trigger_44_interact ]
C:/tmp/_gbsbuild/obj/trigger_45_interact.rel
                                          [ trigger_45_interact ]
C:/tmp/_gbsbuild/obj/trigger_46_interact.rel
                                          [ trigger_46_interact ]
C:/tmp/_gbsbuild/obj/main.rel             [ main ]
C:/tmp/_gbsbuild/obj/logo.rel             [ logo ]
C:/tmp/_gbsbuild/obj/platform.rel         [ platform ]
C:/tmp/_gbsbuild/obj/shmup.rel            [ shmup ]
C:/tmp/_gbsbuild/obj/states_ptrs.rel      [  ]
C:/tmp/_gbsbuild/obj/topdown.rel          [ topdown ]


Libraries Linked                          [ object file ]

C:\tmp/_gbstools/gbdk/lib/gb/gb.lib       [ fill_rect_wi.o ]
C:\tmp/_gbstools/gbdk/lib/sm83/sm83.lib   [ rand.o ]
lib/hUGEDriver.lib                        [ hUGEDriver.o ]
C:\tmp/_gbstools/gbdk/lib/gb/gb.lib       [ sfr.o ]
C:\tmp/_gbstools/gbdk/lib/gb/gb.lib       [ get_data.o ]
C:\tmp/_gbstools/gbdk/lib/gb/gb.lib       [ get_tile.o ]
C:\tmp/_gbstools/gbdk/lib/gb/gb.lib       [ cgb_palettes.o ]
C:\tmp/_gbstools/gbdk/lib/gb/gb.lib       [ metasprites_hide_spr.o ]
C:\tmp/_gbstools/gbdk/lib/sm83/sm83.lib   [ mul.o ]
C:\tmp/_gbstools/gbdk/lib/gb/gb.lib       [ set_tile.o ]
C:\tmp/_gbstools/gbdk/lib/sm83/sm83.lib   [ abs.o ]
C:\tmp/_gbstools/gbdk/lib/gb/gb.lib       [ set_wi_t.o ]
C:\tmp/_gbstools/gbdk/lib/gb/gb.lib       [ set_data.o ]
C:\tmp/_gbstools/gbdk/lib/sm83/sm83.lib   [ reverse.o ]
C:\tmp/_gbstools/gbdk/lib/gb/gb.lib       [ far_ptr.o ]
C:\tmp/_gbstools/gbdk/lib/gb/gb.lib       [ sgb.o ]
C:\tmp/_gbstools/gbdk/lib/gb/gb.lib       [ lcd.o ]
C:\tmp/_gbstools/gbdk/lib/gb/gb.lib       [ fill_rect.o ]
C:\tmp/_gbstools/gbdk/lib/gb/gb.lib       [ cpy_data.o ]
C:\tmp/_gbstools/gbdk/lib/gb/gb.lib       [ fill_rect_bk.o ]
C:\tmp/_gbstools/gbdk/lib/gb/gb.lib       [ pad.o ]
C:\tmp/_gbstools/gbdk/lib/gb/gb.lib       [ metasprites.o ]
C:\tmp/_gbstools/gbdk/lib/sm83/sm83.lib   [ __sdcc_call_hl.o ]
C:\tmp/_gbstools/gbdk/lib/sm83/sm83.lib   [ memcpy.o ]
C:\tmp/_gbstools/gbdk/lib/sm83/sm83.lib   [ _memset.o ]
C:\tmp/_gbstools/gbdk/lib/gb/gb.lib       [ set_xy_t.o ]
C:\tmp/_gbstools/gbdk/lib/gb/gb.lib       [ ___sdcc_bcall_ehl.o ]
C:\tmp/_gbstools/gbdk/lib/gb/gb.lib       [ cgb.o ]
C:\tmp/_gbstools/gbdk/lib/sm83/sm83.lib   [ div.o ]
C:\tmp/_gbstools/gbdk/lib/gb/gb.lib       [ set_bk_t.o ]

ASxxxx Linker V03.00/V05.40 + sdld,  page 74.

User Base Address Definitions

_DATA=0xC0A0
_CODE=0x0200
ASxxxx Linker V03.00/V05.40 + sdld,  page 75.

User Global Definitions

.STACK=0xDF00
_shadow_OAM=0xC000
.refresh_OAM=0xFF80
__start_save=12

