ASxxxx Linker V03.00/V05.40 + sdld,  page 1.
Hexadecimal  [32-Bits]

Area                                    Addr        Size        Decimal Bytes (Attributes)
--------------------------------        ----        ----        ------- ----- ------------
.  .ABS.                            00000000    00000000 =           0. bytes (ABS,CON)

      Value  Global                              Global Defined In Module
      -----  --------------------------------   ------------------------
     00000000  .__.ABS.                           
     00000000  _rRAMG                             
     00000000  l__BASE                         
     00000000  l__BSS                          
     00000000  l__CABS                         
     00000000  l__CODE_0                       
     00000000  l__CRASH_HEADER                 
     00000000  l__CRASH_SCRATCH                
     00000000  l__DABS                         
     00000000  l__HEADER                       
     00000000  l__HEADER_LCD                   
     00000000  l__HEADER_SIO                   
     00000000  l__HEADER_TIMER                 
     00000000  l__HEAP                         
     00000000  l__HEAP_END                     
     00000000  l__HRAM                         
     00000000  l__LIT                          
     00000000  s__CABS                         
     00000000  s__CRASH_HEADER                 
     00000000  s__CRASH_HEADER0                
     00000000  s__CRASH_HEADER1                
     00000000  s__CRASH_SCRATCH                
     00000000  s__CRASH_SCRATCH2               
     00000000  s__DABS                         
     00000000  s__HEADER                       
     00000000  s__HEADER0                      
     00000000  s__HEADER1                      
     00000000  s__HEADER10                     
     00000000  s__HEADER11                     
     00000000  s__HEADER2                      
     00000000  s__HEADER3                      
     00000000  s__HEADER4                      
     00000000  s__HEADER5                      
     00000000  s__HEADER6                      
     00000000  s__HEADER7                      
     00000000  s__HEADER8                      
     00000000  s__HEADER9                      
     00000000  s__HEADER_LCD                   
     00000000  s__HEADER_LCD0                  
     00000000  s__HEADER_SIO                   
     00000000  s__HEADER_SIO0                  
     00000000  s__HEADER_TIMER                 
     00000000  s__HEADER_TIMER0                
     00000000  s__HEADERa                      
     00000000  s__HEADERb                      
     00000000  s__HEADERc                      
     00000000  s__HEADERd                      
     00000000  s__HEADERe                      
     00000000  s__HEADERf                      
     00000000  s__HRAM                         
ASxxxx Linker V03.00/V05.40 + sdld,  page 2.
Hexadecimal  [32-Bits]

Area                                    Addr        Size        Decimal Bytes (Attributes)
--------------------------------        ----        ----        ------- ----- ------------
.  .ABS.                            00000000    00000000 =           0. bytes (ABS,CON)

      Value  Global                              Global Defined In Module
      -----  --------------------------------   ------------------------
     00000000  s__HRAM12                       
     00000001  ___bank_ACTOR                      actor
     00000001  ___bank_VM_SGB                     vm_sgb
     00000001  b_SIO_init                         sio
     00000001  b_activate_actor                   actor
     00000001  b_activate_actors_in_col           actor
     00000001  b_activate_actors_in_row           actor
     00000001  b_actor_at_tile                    actor
     00000001  b_actor_get_frame_offset           actor
     00000001  b_actor_in_front_of_player         actor
     00000001  b_actor_overlapping_bb             actor
     00000001  b_actor_overlapping_player         actor
     00000001  b_actor_set_anim_idle              actor
     00000001  b_actor_set_anim_moving            actor
     00000001  b_actor_set_dir                    actor
     00000001  b_actor_set_frame_offset           actor
     00000001  b_actor_set_frames                 actor
     00000001  b_actors_handle_player_collision   actor
     00000001  b_actors_init                      actor
     00000001  b_check_collision_in_direction     actor
     00000001  b_deactivate_actor                 actor
     00000001  b_platform_init                    platform
     00000001  b_platform_update                  platform
     00000001  b_player_init                      actor
     00000001  b_scroll_init                      scroll
     00000001  b_scroll_repaint                   scroll
     00000001  b_scroll_reset                     scroll
     00000001  b_scroll_update                    scroll
     00000001  b_ui_draw_frame                    ui
     00000001  b_ui_draw_text_buffer_char         ui
     00000001  b_ui_init                          ui
     00000001  b_ui_load_tiles                    ui
     00000001  b_ui_run_menu                      ui
     00000001  b_ui_run_modal                     ui
     00000001  b_ui_set_start_tile                ui
     00000001  l__GSFINAL                      
     00000001  l__HEADER0                      
     00000001  l__HEADER5                      
     00000001  l__HEADERa                      
     00000001  l__HEADERb                      
     00000001  l__HEADERc                      
     00000001  l__HEADERe                      
     00000001  l__HEADERf                      
     00000002  ___bank_VM_ACTOR                   vm_actor
     00000002  ___bank_bg_leaving_earth_tilemap   bg_leaving_earth_tilemap_att
     00000002  ___bank_song_rulz_lightmood_0_Da   song_rulz_lightmood_0_Data
     00000002  ___bank_sprite_fire                sprite_fire
     00000002  ___mute_mask_sound_gbstudio_sfx_   sound_gbstudio_sfx_sav
     00000002  ___mute_mask_sound_gbstudio_sfx_   sound_gbstudio_sfx_sav
     00000002  ___mute_mask_sound_gbstudio_sfx_   sound_gbstudio_sfx_sav
     00000002  ___mute_mask_sound_gbstudio_sfx_   sound_gbstudio_sfx_sav
ASxxxx Linker V03.00/V05.40 + sdld,  page 3.
Hexadecimal  [32-Bits]

Area                                    Addr        Size        Decimal Bytes (Attributes)
--------------------------------        ----        ----        ------- ----- ------------
.  .ABS.                            00000000    00000000 =           0. bytes (ABS,CON)

      Value  Global                              Global Defined In Module
      -----  --------------------------------   ------------------------
     00000002  ___mute_mask_sound_gbstudio_sfx_   sound_gbstudio_sfx_sav
     00000002  ___mute_mask_sound_gbstudio_sfx_   sound_gbstudio_sfx_sav
     00000002  ___mute_mask_sound_gbstudio_sfx_   sound_gbstudio_sfx_sav
     00000002  b_topdown_init                     topdown
     00000002  b_topdown_update                   topdown
     00000002  b_vm_actor_activate                vm_actor
     00000002  b_vm_actor_begin_update            vm_actor
     00000002  b_vm_actor_deactivate              vm_actor
     00000002  b_vm_actor_emote                   vm_actor
     00000002  b_vm_actor_get_angle               vm_actor
     00000002  b_vm_actor_get_anim_frame          vm_actor
     00000002  b_vm_actor_get_dir                 vm_actor
     00000002  b_vm_actor_get_pos                 vm_actor
     00000002  b_vm_actor_move_cancel             vm_actor
     00000002  b_vm_actor_move_to                 vm_actor
     00000002  b_vm_actor_replace_tile            vm_actor
     00000002  b_vm_actor_set_anim                vm_actor
     00000002  b_vm_actor_set_anim_frame          vm_actor
     00000002  b_vm_actor_set_anim_set            vm_actor
     00000002  b_vm_actor_set_anim_tick           vm_actor
     00000002  b_vm_actor_set_bounds              vm_actor
     00000002  b_vm_actor_set_dir                 vm_actor
     00000002  b_vm_actor_set_flags               vm_actor
     00000002  b_vm_actor_set_move_speed          vm_actor
     00000002  b_vm_actor_set_pos                 vm_actor
     00000002  b_vm_actor_set_spritesheet         vm_actor
     00000002  b_vm_actor_set_spritesheet_by_re   vm_actor
     00000002  b_vm_actor_terminate_update        vm_actor
     00000002  l__HEADER10                     
     00000002  l__HEADER6                      
     00000002  l__HEADERd                      
     00000003  ___bank_actor_chest_interact       actor_chest_interact
     00000003  ___bank_bg_leaving_earth_tilemap   bg_leaving_earth_tilemap
     00000003  ___bank_bg_platform_path_tilemap   bg_platform_path_tilemap_att
     00000003  ___bank_scene_deeper_underground   scene_deeper_underground_spr
     00000003  ___bank_scene_space_battle_colli   scene_space_battle_collision
     00000003  ___bank_song_rulz_battletheme_0_   song_rulz_battletheme_0_Data
     00000003  l__HEADER9                      
     00000003  l__HEADER_LCD0                  
     00000003  l__HRAM12                       
     00000004  ___bank_VM_MAIN                    vm
     00000004  ___bank_actor_18_interact          actor_18_interact
     00000004  ___bank_font_gbs_variable_width    font_gbs_variable_width
     00000004  ___bank_scene_parallax_example_s   scene_parallax_example_sprit
     00000004  ___bank_song_rulz_fastpacespeedr   song_rulz_fastpacespeedrace_
     00000004  ___bank_song_rulz_gonaspace_0_Da   song_rulz_gonaspace_0_Data
     00000004  b_fade_applypalettechange          fade_manager
     00000004  b_fade_in                          fade_manager
     00000004  b_fade_in_modal                    fade_manager
     00000004  b_fade_init                        fade_manager
     00000004  b_fade_out                         fade_manager
ASxxxx Linker V03.00/V05.40 + sdld,  page 4.
Hexadecimal  [32-Bits]

Area                                    Addr        Size        Decimal Bytes (Attributes)
--------------------------------        ----        ----        ------- ----- ------------
.  .ABS.                            00000000    00000000 =           0. bytes (ABS,CON)

      Value  Global                              Global Defined In Module
      -----  --------------------------------   ------------------------
     00000004  b_fade_out_modal                   fade_manager
     00000004  b_fade_setspeed                    fade_manager
     00000004  b_fade_update                      fade_manager
     00000004  b_script_detach_hthread            vm
     00000004  b_script_execute                   vm
     00000004  b_script_runner_init               vm
     00000004  b_script_terminate                 vm
     00000004  b_vm_call                          vm
     00000004  b_vm_call_far                      vm
     00000004  b_vm_get_indirect                  vm
     00000004  b_vm_get_tlocal                    vm
     00000004  b_vm_idle                          vm
     00000004  b_vm_if                            vm
     00000004  b_vm_if_const                      vm
     00000004  b_vm_init_rng                      vm
     00000004  b_vm_invoke                        vm
     00000004  b_vm_join                          vm
     00000004  b_vm_jump                          vm
     00000004  b_vm_lock                          vm
     00000004  b_vm_loop                          vm
     00000004  b_vm_memcpy                        vm
     00000004  b_vm_memset                        vm
     00000004  b_vm_poll_loaded                   vm
     00000004  b_vm_pop                           vm
     00000004  b_vm_push                          vm
     00000004  b_vm_push_reference                vm
     00000004  b_vm_push_value                    vm
     00000004  b_vm_push_value_ind                vm
     00000004  b_vm_raise                         vm
     00000004  b_vm_rand                          vm
     00000004  b_vm_reserve                       vm
     00000004  b_vm_ret                           vm
     00000004  b_vm_ret_far                       vm
     00000004  b_vm_set                           vm
     00000004  b_vm_set_const                     vm
     00000004  b_vm_set_indirect                  vm
     00000004  b_vm_terminate                     vm
     00000004  b_vm_test_terminate                vm
     00000004  b_vm_unlock                        vm
     00000004  b_wait_frames                      vm
     00000004  l__CRASH_HEADER1                
     00000004  l__HEADER_SIO0                  
     00000004  l__HEADER_TIMER0                
     00000005  ___bank_bg_sample_town_tilemap     bg_sample_town_tilemap
     00000005  ___bank_bg_sample_town_tilemap_a   bg_sample_town_tilemap_attr
     00000005  ___bank_scene_menu_page_1_sprite   scene_menu_page_1_sprites
     00000005  ___bank_scene_menu_page_2_sprite   scene_menu_page_2_sprites
     00000005  ___bank_scene_sample_town_collis   scene_sample_town_collisions
     00000005  ___bank_song_rulz_pause_undergro   song_rulz_pause_underground_
     00000005  ___bank_song_rulz_undergroundcav   song_rulz_undergroundcave_0_
     00000005  ___bank_sprite_npc001_tileset      sprite_npc001_tileset
ASxxxx Linker V03.00/V05.40 + sdld,  page 5.
Hexadecimal  [32-Bits]

Area                                    Addr        Size        Decimal Bytes (Attributes)
--------------------------------        ----        ----        ------- ----- ------------
.  .ABS.                            00000000    00000000 =           0. bytes (ABS,CON)

      Value  Global                              Global Defined In Module
      -----  --------------------------------   ------------------------
     00000005  l__CRASH_HEADER0                
     00000005  l__HEADER1                      
     00000006  ___bank_VM_UI                      vm_ui
     00000006  ___bank_actor_machine_0_interact   actor_machine_0_interact
     00000006  ___bank_bg_parallax_tileset        bg_parallax_tileset
     00000006  ___bank_bg_platform_path_tilemap   bg_platform_path_tilemap
     00000006  ___bank_scene_path_to_sample_tow   scene_path_to_sample_town_co
     00000006  ___bank_song_drum_example_Data     song_drum_example_Data
     00000006  ___bank_song_echo_example_Data     song_echo_example_Data
     00000006  b_vm_choice                        vm_ui
     00000006  b_vm_display_text                  vm_ui
     00000006  b_vm_overlay_clear                 vm_ui
     00000006  b_vm_overlay_move_to               vm_ui
     00000006  b_vm_overlay_scroll                vm_ui
     00000006  b_vm_overlay_set_map               vm_ui
     00000006  b_vm_overlay_set_scroll            vm_ui
     00000006  b_vm_overlay_set_submap            vm_ui
     00000006  b_vm_overlay_set_submap_ex         vm_ui
     00000006  b_vm_overlay_setpos                vm_ui
     00000006  b_vm_overlay_show                  vm_ui
     00000006  b_vm_overlay_wait                  vm_ui
     00000006  b_vm_set_font                      vm_ui
     00000006  b_vm_set_text_sound                vm_ui
     00000006  b_vm_switch_text_layer             vm_ui
     00000006  l__HEADER8                      
     00000007  ___bank_actor_10_interact          actor_10_interact
     00000007  ___bank_bg_room_tileset            bg_room_tileset
     00000007  ___bank_song_rulz_intro_0_Data     song_rulz_intro_0_Data
     00000007  ___bank_song_rulz_outside_0_Data   song_rulz_outside_0_Data
     00000007  ___bank_song_rulz_spaceemergency   song_rulz_spaceemergency_0_D
     00000007  b_do_load_palette                  data_manager
     00000007  b_load_background                  data_manager
     00000007  b_load_bkg_tileset                 data_manager
     00000007  b_load_bounds                      data_manager
     00000007  b_load_emote                       data_manager
     00000007  b_load_init                        data_manager
     00000007  b_load_player                      data_manager
     00000007  b_load_scene                       data_manager
     00000007  b_load_sprite                      data_manager
     00000007  b_projectile_launch                projectiles
     00000007  b_projectiles_init                 projectiles
     00000007  b_shmup_init                       shmup
     00000007  b_shmup_update                     shmup
     00000007  l__HEADER2                      
     00000008  ___bank_VM_GAMEBOY                 vm_gameboy
     00000008  ___bank_bg_launch_site_tileset     bg_launch_site_tileset
     00000008  ___bank_bg_logo_tileset            bg_logo_tileset
     00000008  ___bank_bg_parallax_tilemap        bg_parallax_tilemap
     00000008  ___bank_bg_parallax_tilemap_attr   bg_parallax_tilemap_attr
     00000008  ___bank_bg_sample_town_tileset     bg_sample_town_tileset
     00000008  ___bank_bg_stars_tilemap           bg_stars_tilemap
ASxxxx Linker V03.00/V05.40 + sdld,  page 6.
Hexadecimal  [32-Bits]

Area                                    Addr        Size        Decimal Bytes (Attributes)
--------------------------------        ----        ----        ------- ----- ------------
.  .ABS.                            00000000    00000000 =           0. bytes (ABS,CON)

      Value  Global                              Global Defined In Module
      -----  --------------------------------   ------------------------
     00000008  ___bank_bg_stars_tilemap_attr      bg_stars_tilemap_attr
     00000008  ___bank_bg_titlescreen_tileset     bg_titlescreen_tileset
     00000008  ___bank_bg_underground_tilemap     bg_underground_tilemap
     00000008  ___bank_bg_underground_tilemap_a   bg_underground_tilemap_attr
     00000008  ___bank_bg_underground_tileset     bg_underground_tileset
     00000008  ___bank_scene_parallax_example_c   scene_parallax_example_colli
     00000008  ___mute_mask_sound_gbstudio_sfx_   sound_gbstudio_sfx_sav
     00000008  ___mute_mask_sound_gbstudio_sfx_   sound_gbstudio_sfx_sav
     00000008  ___mute_mask_sound_legacy_0        sound_legacy_0
     00000008  b_vm_context_prepare               vm_gameboy
     00000008  b_vm_fade                          vm_gameboy
     00000008  b_vm_get_tile_xy                   vm_gameboy
     00000008  b_vm_input_attach                  vm_gameboy
     00000008  b_vm_input_detach                  vm_gameboy
     00000008  b_vm_input_get                     vm_gameboy
     00000008  b_vm_input_wait                    vm_gameboy
     00000008  b_vm_load_tileset                  vm_gameboy
     00000008  b_vm_poll                          vm_gameboy
     00000008  b_vm_replace_tile                  vm_gameboy
     00000008  b_vm_replace_tile_xy               vm_gameboy
     00000008  b_vm_rumble                        vm_gameboy
     00000008  b_vm_set_sprite_mode               vm_gameboy
     00000008  b_vm_set_sprites_visible           vm_gameboy
     00000008  b_vm_timer_prepare                 vm_gameboy
     00000008  b_vm_timer_reset                   vm_gameboy
     00000008  b_vm_timer_set                     vm_gameboy
     00000008  b_vm_timer_stop                    vm_gameboy
     00000008  l__HEADER3                      
     00000009  ___bank_VM_CAMERA                  vm_camera
     00000009  ___bank_VM_SIO                     vm_sio
     00000009  ___bank_actor_19_interact          actor_19_interact
     00000009  ___bank_bg_hidden_cave_tilemap_a   bg_hidden_cave_tilemap_attr
     00000009  ___bank_bg_leaving_earth_tileset   bg_leaving_earth_tileset
     00000009  ___bank_bg_menu_page1_tileset      bg_menu_page1_tileset
     00000009  ___bank_bg_platform_path_tileset   bg_platform_path_tileset
     00000009  ___bank_scene_deep_space_collisi   scene_deep_space_collisions
     00000009  ___bank_scene_space_battle_actor   scene_space_battle_actors
     00000009  ___bank_scene_underground_collis   scene_underground_collisions
     00000009  ___bank_sound_gbstudio_sfx_sav_0   sound_gbstudio_sfx_sav
     00000009  ___bank_sound_gbstudio_sfx_sav_0   sound_gbstudio_sfx_sav
     00000009  ___bank_sound_gbstudio_sfx_sav_0   sound_gbstudio_sfx_sav
     00000009  ___bank_sound_gbstudio_sfx_sav_0   sound_gbstudio_sfx_sav
     00000009  ___bank_sound_gbstudio_sfx_sav_0   sound_gbstudio_sfx_sav
     00000009  ___bank_sound_gbstudio_sfx_sav_0   sound_gbstudio_sfx_sav
     00000009  ___bank_sound_gbstudio_sfx_sav_0   sound_gbstudio_sfx_sav
     00000009  ___bank_sound_gbstudio_sfx_sav_0   sound_gbstudio_sfx_sav
     00000009  ___bank_sound_gbstudio_sfx_sav_0   sound_gbstudio_sfx_sav
     00000009  ___bank_sound_gbstudio_sfx_sav_0   sound_gbstudio_sfx_sav
     00000009  ___bank_sprite_elephant            sprite_elephant
     00000009  ___bank_sprite_elephant_tileset    sprite_elephant_tileset
     00000009  b___HandleCrash_banked             
ASxxxx Linker V03.00/V05.40 + sdld,  page 7.
Hexadecimal  [32-Bits]

Area                                    Addr        Size        Decimal Bytes (Attributes)
--------------------------------        ----        ----        ------- ----- ------------
.  .ABS.                            00000000    00000000 =           0. bytes (ABS,CON)

      Value  Global                              Global Defined In Module
      -----  --------------------------------   ------------------------
     00000009  b_atan2                            math_atan2
     00000009  b_camera_shake_frames              vm_camera
     00000009  b_core_reset                       core
     00000009  b_core_run                         core
     00000009  b_data_clear                       load_save
     00000009  b_data_init                        load_save
     00000009  b_data_load                        load_save
     00000009  b_data_peek                        load_save
     00000009  b_data_save                        load_save
     00000009  b_gbprinter_detect                 gbprinter
     00000009  b_gbprinter_print_overlay          gbprinter
     00000009  b_pointnclick_init                 pointnclick
     00000009  b_pointnclick_update               pointnclick
     00000009  b_set_sgb_border                   sgb_border
     00000009  b_trigger_activate_at              trigger
     00000009  b_trigger_activate_at_intersecti   trigger
     00000009  b_trigger_at_intersection          trigger
     00000009  b_trigger_at_tile                  trigger
     00000009  b_trigger_interact                 trigger
     00000009  b_trigger_reset                    trigger
     00000009  b_vm_camera_move_to                vm_camera
     00000009  b_vm_camera_set_pos                vm_camera
     00000009  b_vm_sio_exchange                  vm_sio
     00000009  b_vm_sio_set_mode                  vm_sio
     0000000A  ___bank_VM_PALETTE                 vm_palette
     0000000A  ___bank_actor_gardener_interact    actor_gardener_interact
     0000000A  ___bank_actor_pet_owner_update     actor_pet_owner_update
     0000000A  ___bank_bg_black_tilemap           bg_black_tilemap
     0000000A  ___bank_bg_black_tilemap_attr      bg_black_tilemap_attr
     0000000A  ___bank_bg_cave_tilemap            bg_cave_tilemap
     0000000A  ___bank_bg_cave_tilemap_attr       bg_cave_tilemap_attr
     0000000A  ___bank_bg_cave_tileset            bg_cave_tileset
     0000000A  ___bank_bg_hidden_cave_tilemap     bg_hidden_cave_tilemap
     0000000A  ___bank_bg_house_tilemap           bg_house_tilemap
     0000000A  ___bank_bg_house_tilemap_attr      bg_house_tilemap_attr
     0000000A  ___bank_bg_launch_site_tilemap     bg_launch_site_tilemap
     0000000A  ___bank_bg_launch_site_tilemap_a   bg_launch_site_tilemap_attr
     0000000A  ___bank_bg_logo_tilemap            bg_logo_tilemap
     0000000A  ___bank_bg_logo_tilemap_attr       bg_logo_tilemap_attr
     0000000A  ___bank_bg_menu_page1_tilemap      bg_menu_page1_tilemap
     0000000A  ___bank_bg_menu_page1_tilemap_at   bg_menu_page1_tilemap_attr
     0000000A  ___bank_bg_menu_page2_tilemap      bg_menu_page2_tilemap
     0000000A  ___bank_bg_menu_page2_tilemap_at   bg_menu_page2_tilemap_attr
     0000000A  ___bank_bg_menu_page2_tileset      bg_menu_page2_tileset
     0000000A  ___bank_bg_room_tilemap            bg_room_tilemap
     0000000A  ___bank_bg_room_tilemap_attr       bg_room_tilemap_attr
     0000000A  ___bank_bg_titlescreen_tilemap     bg_titlescreen_tilemap
     0000000A  ___bank_bg_titlescreen_tilemap_a   bg_titlescreen_tilemap_attr
     0000000A  ___bank_scene_17_actors            scene_17_actors
     0000000A  ___bank_scene_17_collisions        scene_17_collisions
     0000000A  ___bank_scene_deeper_underground   scene_deeper_underground_col
ASxxxx Linker V03.00/V05.40 + sdld,  page 8.
Hexadecimal  [32-Bits]

Area                                    Addr        Size        Decimal Bytes (Attributes)
--------------------------------        ----        ----        ------- ----- ------------
.  .ABS.                            00000000    00000000 =           0. bytes (ABS,CON)

      Value  Global                              Global Defined In Module
      -----  --------------------------------   ------------------------
     0000000A  ___bank_scene_sample_town_actors   scene_sample_town_actors
     0000000A  ___bank_script_enemy_ship_moveme   script_enemy_ship_movement_
     0000000A  ___bank_script_enemy_ship_moveme   script_enemy_ship_movement__
     0000000A  ___bank_script_enemy_ship_moveme   script_enemy_ship_movement__
     0000000A  ___bank_script_enemy_ship_moveme   script_enemy_ship_movement__
     0000000A  ___bank_sprite_npc002_tileset      sprite_npc002_tileset
     0000000A  ___bank_sprite_npc003_tileset      sprite_npc003_tileset
     0000000A  ___bank_sprite_npc004_tileset      sprite_npc004_tileset
     0000000A  ___bank_sprite_npc005_tileset      sprite_npc005_tileset
     0000000A  ___bank_sprite_player_platform     sprite_player_platform
     0000000A  ___bank_sprite_player_platform_t   sprite_player_platform_tiles
     0000000A  ___bank_sprite_player_tileset      sprite_player_tileset
     0000000A  ___bank_sprite_space_mine_tilese   sprite_space_mine_tileset
     0000000A  ___bank_trigger_13_interact        trigger_13_interact
     0000000A  ___bank_trigger_38_interact        trigger_38_interact
     0000000A  ___mute_mask_sound_gbstudio_sfx_   sound_gbstudio_sfx_sav
     0000000A  b_vm_load_palette                  vm_palette
     0000000B  ___bank_VM_GBPRINTER               vm_gbprinter
     0000000B  ___bank_VM_MATH                    vm_math
     0000000B  ___bank_VM_MUSIC                   vm_music
     0000000B  ___bank_VM_PROJECTILE              vm_projectiles
     0000000B  ___bank_VM_RTC                     vm_rtc
     0000000B  ___bank_actor_20_interact          actor_20_interact
     0000000B  ___bank_actor_angry_guy_interact   actor_angry_guy_interact
     0000000B  ___bank_actor_ice_block_interact   actor_ice_block_interact
     0000000B  ___bank_actor_pet_owner_interact   actor_pet_owner_interact
     0000000B  ___bank_actor_radio_guy_interact   actor_radio_guy_interact
     0000000B  ___bank_actor_sage_interact        actor_sage_interact
     0000000B  ___bank_actor_save_point_0_inter   actor_save_point_0_interact
     0000000B  ___bank_actor_save_point_1_inter   actor_save_point_1_interact
     0000000B  ___bank_actor_save_point_interac   actor_save_point_interact
     0000000B  ___bank_actor_scientist_interact   actor_scientist_interact
     0000000B  ___bank_actor_scientist_update     actor_scientist_update
     0000000B  ___bank_actor_sign_post_0_intera   actor_sign_post_0_interact
     0000000B  ___bank_actor_space_dog_interact   actor_space_dog_interact
     0000000B  ___bank_actor_turnip_1_interact    actor_turnip_1_interact
     0000000B  ___bank_actor_turnip_1_update      actor_turnip_1_update
     0000000B  ___bank_actor_turnip_2_interact    actor_turnip_2_interact
     0000000B  ___bank_actor_turnip_2_update      actor_turnip_2_update
     0000000B  ___bank_actor_turnip_3_interact    actor_turnip_3_interact
     0000000B  ___bank_actor_turnip_3_update      actor_turnip_3_update
     0000000B  ___bank_bg_hidden_cave_tileset     bg_hidden_cave_tileset
     0000000B  ___bank_bg_house_tileset           bg_house_tileset
     0000000B  ___bank_scene_cave_actors          scene_cave_actors
     0000000B  ___bank_scene_cave_collisions      scene_cave_collisions
     0000000B  ___bank_scene_dream_collisions     scene_dream_collisions
     0000000B  ___bank_scene_dream_init           scene_dream_init
     0000000B  ___bank_scene_launch_site_actors   scene_launch_site_actors
     0000000B  ___bank_scene_launch_site_collis   scene_launch_site_collisions
     0000000B  ___bank_scene_logo_collisions      scene_logo_collisions
     0000000B  ___bank_scene_menu_page_1_actors   scene_menu_page_1_actors
ASxxxx Linker V03.00/V05.40 + sdld,  page 9.
Hexadecimal  [32-Bits]

Area                                    Addr        Size        Decimal Bytes (Attributes)
--------------------------------        ----        ----        ------- ----- ------------
.  .ABS.                            00000000    00000000 =           0. bytes (ABS,CON)

      Value  Global                              Global Defined In Module
      -----  --------------------------------   ------------------------
     0000000B  ___bank_scene_menu_page_1_collis   scene_menu_page_1_collisions
     0000000B  ___bank_scene_menu_page_1_init     scene_menu_page_1_init
     0000000B  ___bank_scene_menu_page_2_actors   scene_menu_page_2_actors
     0000000B  ___bank_scene_menu_page_2_collis   scene_menu_page_2_collisions
     0000000B  ___bank_scene_menu_page_2_init     scene_menu_page_2_init
     0000000B  ___bank_scene_path_to_sample_tow   scene_path_to_sample_town_ac
     0000000B  ___bank_scene_path_to_sample_tow   scene_path_to_sample_town_in
     0000000B  ___bank_scene_player_s_house_col   scene_player_s_house_collisi
     0000000B  ___bank_scene_title_screen_colli   scene_title_screen_collision
     0000000B  ___bank_scene_title_screen_init    scene_title_screen_init
     0000000B  ___bank_scene_top_house_actors     scene_top_house_actors
     0000000B  ___bank_scene_top_house_collisio   scene_top_house_collisions
     0000000B  ___bank_scene_underground_actors   scene_underground_actors
     0000000B  ___bank_script_timer               script_timer
     0000000B  ___bank_sprite_enemy_ship_tilese   sprite_enemy_ship_tileset
     0000000B  ___bank_sprite_fire_tileset        sprite_fire_tileset
     0000000B  ___bank_sprite_npc003              sprite_npc003
     0000000B  ___bank_sprite_npc004              sprite_npc004
     0000000B  ___bank_sprite_npc005              sprite_npc005
     0000000B  ___bank_sprite_npc007_tileset      sprite_npc007_tileset
     0000000B  ___bank_sprite_npc008_tileset      sprite_npc008_tileset
     0000000B  ___bank_sprite_player              sprite_player
     0000000B  ___bank_sprite_player_ship         sprite_player_ship
     0000000B  ___bank_sprite_player_ship_tiles   sprite_player_ship_tileset
     0000000B  ___bank_sprite_pod_door_tileset    sprite_pod_door_tileset
     0000000B  ___bank_sprite_portal_tileset      sprite_portal_tileset
     0000000B  ___bank_sprite_turnip_tileset      sprite_turnip_tileset
     0000000B  ___bank_trigger_10_interact        trigger_10_interact
     0000000B  ___bank_trigger_11_interact        trigger_11_interact
     0000000B  b_erase_flash                      
     0000000B  b_itoa_fmt                         vm_ui_a
     0000000B  b_music_events_poll                music_manager
     0000000B  b_music_init_driver                music_manager
     0000000B  b_music_init_events                music_manager
     0000000B  b_save_sram_banks                  
     0000000B  b_vm_cos_scale                     vm_math
     0000000B  b_vm_music_mute                    vm_music
     0000000B  b_vm_music_play                    vm_music
     0000000B  b_vm_music_routine                 vm_music
     0000000B  b_vm_music_setpos                  vm_music
     0000000B  b_vm_music_stop                    vm_music
     0000000B  b_vm_print_detect                  vm_gbprinter
     0000000B  b_vm_print_overlay                 vm_gbprinter
     0000000B  b_vm_projectile_launch             vm_projectiles
     0000000B  b_vm_projectile_load_type          vm_projectiles
     0000000B  b_vm_rtc_get                       vm_rtc
     0000000B  b_vm_rtc_latch                     vm_rtc
     0000000B  b_vm_rtc_set                       vm_rtc
     0000000B  b_vm_rtc_start                     vm_rtc
     0000000B  b_vm_sfx_play                      vm_music
     0000000B  b_vm_sin_scale                     vm_math
ASxxxx Linker V03.00/V05.40 + sdld,  page 10.
Hexadecimal  [32-Bits]

Area                                    Addr        Size        Decimal Bytes (Attributes)
--------------------------------        ----        ----        ------- ----- ------------
.  .ABS.                            00000000    00000000 =           0. bytes (ABS,CON)

      Value  Global                              Global Defined In Module
      -----  --------------------------------   ------------------------
     0000000B  b_vm_sound_mastervol               vm_music
     0000000C  ___bank_VM_LOAD_SAVE               vm_load_save
     0000000C  ___bank_VM_SCENE                   vm_scene
     0000000C  ___bank_actor_10_update            actor_10_update
     0000000C  ___bank_actor_11_interact          actor_11_interact
     0000000C  ___bank_actor_11_update            actor_11_update
     0000000C  ___bank_actor_12_interact          actor_12_interact
     0000000C  ___bank_actor_12_update            actor_12_update
     0000000C  ___bank_actor_13_interact          actor_13_interact
     0000000C  ___bank_actor_13_update            actor_13_update
     0000000C  ___bank_actor_14_interact          actor_14_interact
     0000000C  ___bank_actor_14_update            actor_14_update
     0000000C  ___bank_actor_15_interact          actor_15_interact
     0000000C  ___bank_actor_15_update            actor_15_update
     0000000C  ___bank_actor_16_interact          actor_16_interact
     0000000C  ___bank_actor_16_update            actor_16_update
     0000000C  ___bank_actor_17_interact          actor_17_interact
     0000000C  ___bank_actor_17_update            actor_17_update
     0000000C  ___bank_actor_20_update            actor_20_update
     0000000C  ___bank_actor_21_interact          actor_21_interact
     0000000C  ___bank_actor_22_interact          actor_22_interact
     0000000C  ___bank_actor_23_interact          actor_23_interact
     0000000C  ___bank_actor_24_interact          actor_24_interact
     0000000C  ___bank_actor_25_interact          actor_25_interact
     0000000C  ___bank_actor_26_interact          actor_26_interact
     0000000C  ___bank_actor_3_interact           actor_3_interact
     0000000C  ___bank_actor_3_update             actor_3_update
     0000000C  ___bank_actor_4_interact           actor_4_interact
     0000000C  ___bank_actor_4_update             actor_4_update
     0000000C  ___bank_actor_5_interact           actor_5_interact
     0000000C  ___bank_actor_5_update             actor_5_update
     0000000C  ___bank_actor_6_interact           actor_6_interact
     0000000C  ___bank_actor_6_update             actor_6_update
     0000000C  ___bank_actor_7_interact           actor_7_interact
     0000000C  ___bank_actor_7_update             actor_7_update
     0000000C  ___bank_actor_8_interact           actor_8_interact
     0000000C  ___bank_actor_8_update             actor_8_update
     0000000C  ___bank_actor_9_interact           actor_9_interact
     0000000C  ___bank_actor_9_update             actor_9_update
     0000000C  ___bank_actor_cat_interact         actor_cat_interact
     0000000C  ___bank_actor_hider_interact       actor_hider_interact
     0000000C  ___bank_actor_machine_1_interact   actor_machine_1_interact
     0000000C  ___bank_actor_machine_2_interact   actor_machine_2_interact
     0000000C  ___bank_actor_machine_interact     actor_machine_interact
     0000000C  ___bank_actor_oblivious_guy_inte   actor_oblivious_guy_interact
     0000000C  ___bank_actor_radio_interact       actor_radio_interact
     0000000C  ___bank_actor_rock_1_interact      actor_rock_1_interact
     0000000C  ___bank_actor_rock_2_interact      actor_rock_2_interact
     0000000C  ___bank_actor_rock_3_interact      actor_rock_3_interact
     0000000C  ___bank_actor_rock_interact        actor_rock_interact
     0000000C  ___bank_actor_sign_post_1_intera   actor_sign_post_1_interact
ASxxxx Linker V03.00/V05.40 + sdld,  page 11.
Hexadecimal  [32-Bits]

Area                                    Addr        Size        Decimal Bytes (Attributes)
--------------------------------        ----        ----        ------- ----- ------------
.  .ABS.                            00000000    00000000 =           0. bytes (ABS,CON)

      Value  Global                              Global Defined In Module
      -----  --------------------------------   ------------------------
     0000000C  ___bank_actor_sign_post_2_intera   actor_sign_post_2_interact
     0000000C  ___bank_actor_sign_post_3_intera   actor_sign_post_3_interact
     0000000C  ___bank_actor_sign_post_4_intera   actor_sign_post_4_interact
     0000000C  ___bank_actor_sign_post_5_intera   actor_sign_post_5_interact
     0000000C  ___bank_actor_sign_post_interact   actor_sign_post_interact
     0000000C  ___bank_avatar_font_0              avatar_font_0
     0000000C  ___bank_bg_black                   bg_black
     0000000C  ___bank_bg_black_tileset           bg_black_tileset
     0000000C  ___bank_bg_cave                    bg_cave
     0000000C  ___bank_bg_hidden_cave             bg_hidden_cave
     0000000C  ___bank_bg_house                   bg_house
     0000000C  ___bank_bg_launch_site             bg_launch_site
     0000000C  ___bank_bg_leaving_earth           bg_leaving_earth
     0000000C  ___bank_bg_logo                    bg_logo
     0000000C  ___bank_bg_menu_page1              bg_menu_page1
     0000000C  ___bank_bg_menu_page2              bg_menu_page2
     0000000C  ___bank_bg_parallax                bg_parallax
     0000000C  ___bank_bg_platform_path           bg_platform_path
     0000000C  ___bank_bg_room                    bg_room
     0000000C  ___bank_bg_sample_town             bg_sample_town
     0000000C  ___bank_bg_stars                   bg_stars
     0000000C  ___bank_bg_stars_tileset           bg_stars_tileset
     0000000C  ___bank_bg_titlescreen             bg_titlescreen
     0000000C  ___bank_bg_underground             bg_underground
     0000000C  ___bank_bootstrap_script           
     0000000C  ___bank_cursor_image               cursor_image
     0000000C  ___bank_emote_anger                emote_anger
     0000000C  ___bank_emote_music                emote_music
     0000000C  ___bank_emote_pause                emote_pause
     0000000C  ___bank_emote_shock                emote_shock
     0000000C  ___bank_emote_sweat                emote_sweat
     0000000C  ___bank_frame_image                frame_image
     0000000C  ___bank_palette_0                  palette_0
     0000000C  ___bank_palette_1                  palette_1
     0000000C  ___bank_palette_10                 palette_10
     0000000C  ___bank_palette_2                  palette_2
     0000000C  ___bank_palette_3                  palette_3
     0000000C  ___bank_palette_4                  palette_4
     0000000C  ___bank_palette_5                  palette_5
     0000000C  ___bank_palette_6                  palette_6
     0000000C  ___bank_palette_7                  palette_7
     0000000C  ___bank_palette_8                  palette_8
     0000000C  ___bank_palette_9                  palette_9
     0000000C  ___bank_scene_17                   scene_17
     0000000C  ___bank_scene_17_init              scene_17_init
     0000000C  ___bank_scene_17_sprites           scene_17_sprites
     0000000C  ___bank_scene_17_triggers          scene_17_triggers
     0000000C  ___bank_scene_cave                 scene_cave
     0000000C  ___bank_scene_cave_init            scene_cave_init
     0000000C  ___bank_scene_cave_sprites         scene_cave_sprites
     0000000C  ___bank_scene_cave_triggers        scene_cave_triggers
ASxxxx Linker V03.00/V05.40 + sdld,  page 12.
Hexadecimal  [32-Bits]

Area                                    Addr        Size        Decimal Bytes (Attributes)
--------------------------------        ----        ----        ------- ----- ------------
.  .ABS.                            00000000    00000000 =           0. bytes (ABS,CON)

      Value  Global                              Global Defined In Module
      -----  --------------------------------   ------------------------
     0000000C  ___bank_scene_deep_space           scene_deep_space
     0000000C  ___bank_scene_deep_space_actors    scene_deep_space_actors
     0000000C  ___bank_scene_deep_space_init      scene_deep_space_init
     0000000C  ___bank_scene_deep_space_sprites   scene_deep_space_sprites
     0000000C  ___bank_scene_deep_space_trigger   scene_deep_space_triggers
     0000000C  ___bank_scene_deeper_underground   scene_deeper_underground
     0000000C  ___bank_scene_deeper_underground   scene_deeper_underground_act
     0000000C  ___bank_scene_deeper_underground   scene_deeper_underground_ini
     0000000C  ___bank_scene_deeper_underground   scene_deeper_underground_tri
     0000000C  ___bank_scene_dream                scene_dream
     0000000C  ___bank_scene_launch_site          scene_launch_site
     0000000C  ___bank_scene_launch_site_init     scene_launch_site_init
     0000000C  ___bank_scene_launch_site_sprite   scene_launch_site_sprites
     0000000C  ___bank_scene_launch_site_trigge   scene_launch_site_triggers
     0000000C  ___bank_scene_logo                 scene_logo
     0000000C  ___bank_scene_logo_init            scene_logo_init
     0000000C  ___bank_scene_menu_page_1          scene_menu_page_1
     0000000C  ___bank_scene_menu_page_2          scene_menu_page_2
     0000000C  ___bank_scene_parallax_example     scene_parallax_example
     0000000C  ___bank_scene_parallax_example_a   scene_parallax_example_actor
     0000000C  ___bank_scene_parallax_example_i   scene_parallax_example_init
     0000000C  ___bank_scene_parallax_example_t   scene_parallax_example_trigg
     0000000C  ___bank_scene_path_to_sample_tow   scene_path_to_sample_town
     0000000C  ___bank_scene_path_to_sample_tow   scene_path_to_sample_town_sp
     0000000C  ___bank_scene_path_to_sample_tow   scene_path_to_sample_town_tr
     0000000C  ___bank_scene_player_s_house       scene_player_s_house
     0000000C  ___bank_scene_player_s_house_ini   scene_player_s_house_init
     0000000C  ___bank_scene_player_s_house_tri   scene_player_s_house_trigger
     0000000C  ___bank_scene_sample_town          scene_sample_town
     0000000C  ___bank_scene_sample_town_init     scene_sample_town_init
     0000000C  ___bank_scene_sample_town_sprite   scene_sample_town_sprites
     0000000C  ___bank_scene_sample_town_trigge   scene_sample_town_triggers
     0000000C  ___bank_scene_space_battle         scene_space_battle
     0000000C  ___bank_scene_space_battle_init    scene_space_battle_init
     0000000C  ___bank_scene_space_battle_p_hit   scene_space_battle_p_hit1
     0000000C  ___bank_scene_space_battle_proje   scene_space_battle_projectil
     0000000C  ___bank_scene_space_battle_sprit   scene_space_battle_sprites
     0000000C  ___bank_scene_space_battle_trigg   scene_space_battle_triggers
     0000000C  ___bank_scene_title_screen         scene_title_screen
     0000000C  ___bank_scene_top_house            scene_top_house
     0000000C  ___bank_scene_top_house_init       scene_top_house_init
     0000000C  ___bank_scene_top_house_sprites    scene_top_house_sprites
     0000000C  ___bank_scene_top_house_triggers   scene_top_house_triggers
     0000000C  ___bank_scene_underground          scene_underground
     0000000C  ___bank_scene_underground_init     scene_underground_init
     0000000C  ___bank_scene_underground_sprite   scene_underground_sprites
     0000000C  ___bank_scene_underground_trigge   scene_underground_triggers
     0000000C  ___bank_script_enemy_ship_destro   script_enemy_ship_destroy
     0000000C  ___bank_script_enemy_ship_hit_pl   script_enemy_ship_hit_playe
     0000000C  ___bank_script_engine_init         
     0000000C  ___bank_script_init_menu           script_init_menu
ASxxxx Linker V03.00/V05.40 + sdld,  page 13.
Hexadecimal  [32-Bits]

Area                                    Addr        Size        Decimal Bytes (Attributes)
--------------------------------        ----        ----        ------- ----- ------------
.  .ABS.                            00000000    00000000 =           0. bytes (ABS,CON)

      Value  Global                              Global Defined In Module
      -----  --------------------------------   ------------------------
     0000000C  ___bank_script_init_weapons        script_init_weapons
     0000000C  ___bank_script_input               script_input
     0000000C  ___bank_script_input_5             script_input_5
     0000000C  ___bank_sound_legacy_0             sound_legacy_0
     0000000C  ___bank_sprite_bullet_left         sprite_bullet_left
     0000000C  ___bank_sprite_bullet_left_tiles   sprite_bullet_left_tileset
     0000000C  ___bank_sprite_bullet_right        sprite_bullet_right
     0000000C  ___bank_sprite_bullet_right_tile   sprite_bullet_right_tileset
     0000000C  ___bank_sprite_cat                 sprite_cat
     0000000C  ___bank_sprite_cat_tileset         sprite_cat_tileset
     0000000C  ___bank_sprite_checkbox            sprite_checkbox
     0000000C  ___bank_sprite_checkbox_tileset    sprite_checkbox_tileset
     0000000C  ___bank_sprite_chest               sprite_chest
     0000000C  ___bank_sprite_chest_tileset       sprite_chest_tileset
     0000000C  ___bank_sprite_cursor              sprite_cursor
     0000000C  ___bank_sprite_cursor_tileset      sprite_cursor_tileset
     0000000C  ___bank_sprite_dog                 sprite_dog
     0000000C  ___bank_sprite_dog_tileset         sprite_dog_tileset
     0000000C  ___bank_sprite_drumkit             sprite_drumkit
     0000000C  ___bank_sprite_drumkit_tileset     sprite_drumkit_tileset
     0000000C  ___bank_sprite_duck                sprite_duck
     0000000C  ___bank_sprite_duck_tileset        sprite_duck_tileset
     0000000C  ___bank_sprite_enemy_ship          sprite_enemy_ship
     0000000C  ___bank_sprite_hidden_stairs       sprite_hidden_stairs
     0000000C  ___bank_sprite_hidden_stairs_til   sprite_hidden_stairs_tileset
     0000000C  ___bank_sprite_ice                 sprite_ice
     0000000C  ___bank_sprite_ice_tileset         sprite_ice_tileset
     0000000C  ___bank_sprite_keyboard            sprite_keyboard
     0000000C  ___bank_sprite_keyboard_tileset    sprite_keyboard_tileset
     0000000C  ___bank_sprite_machine             sprite_machine
     0000000C  ___bank_sprite_machine_tileset     sprite_machine_tileset
     0000000C  ___bank_sprite_npc001              sprite_npc001
     0000000C  ___bank_sprite_npc002              sprite_npc002
     0000000C  ___bank_sprite_npc007              sprite_npc007
     0000000C  ___bank_sprite_npc008              sprite_npc008
     0000000C  ___bank_sprite_npc_gardener        sprite_npc_gardener
     0000000C  ___bank_sprite_npc_gardener_tile   sprite_npc_gardener_tileset
     0000000C  ___bank_sprite_pod_door            sprite_pod_door
     0000000C  ___bank_sprite_portal              sprite_portal
     0000000C  ___bank_sprite_radio               sprite_radio
     0000000C  ___bank_sprite_radio_tileset       sprite_radio_tileset
     0000000C  ___bank_sprite_rock                sprite_rock
     0000000C  ___bank_sprite_rock_tileset        sprite_rock_tileset
     0000000C  ___bank_sprite_sage                sprite_sage
     0000000C  ___bank_sprite_sage_tileset        sprite_sage_tileset
     0000000C  ___bank_sprite_savepoint           sprite_savepoint
     0000000C  ___bank_sprite_savepoint_tileset   sprite_savepoint_tileset
     0000000C  ___bank_sprite_signpost            sprite_signpost
     0000000C  ___bank_sprite_signpost_tileset    sprite_signpost_tileset
     0000000C  ___bank_sprite_space_mine          sprite_space_mine
     0000000C  ___bank_sprite_torch               sprite_torch
ASxxxx Linker V03.00/V05.40 + sdld,  page 14.
Hexadecimal  [32-Bits]

Area                                    Addr        Size        Decimal Bytes (Attributes)
--------------------------------        ----        ----        ------- ----- ------------
.  .ABS.                            00000000    00000000 =           0. bytes (ABS,CON)

      Value  Global                              Global Defined In Module
      -----  --------------------------------   ------------------------
     0000000C  ___bank_sprite_torch_tileset       sprite_torch_tileset
     0000000C  ___bank_sprite_turnip              sprite_turnip
     0000000C  ___bank_sprite_ui_weapon           sprite_ui_weapon
     0000000C  ___bank_sprite_ui_weapon_tileset   sprite_ui_weapon_tileset
     0000000C  ___bank_spritesheet_none           spritesheet_none
     0000000C  ___bank_tileset_default_frame      tileset_default_frame
     0000000C  ___bank_tileset_flowers            tileset_flowers
     0000000C  ___bank_tileset_waterfall          tileset_waterfall
     0000000C  ___bank_trigger_0_interact         trigger_0_interact
     0000000C  ___bank_trigger_12_interact        trigger_12_interact
     0000000C  ___bank_trigger_14_interact        trigger_14_interact
     0000000C  ___bank_trigger_15_interact        trigger_15_interact
     0000000C  ___bank_trigger_16_interact        trigger_16_interact
     0000000C  ___bank_trigger_17_interact        trigger_17_interact
     0000000C  ___bank_trigger_18_interact        trigger_18_interact
     0000000C  ___bank_trigger_19_interact        trigger_19_interact
     0000000C  ___bank_trigger_1_interact         trigger_1_interact
     0000000C  ___bank_trigger_20_interact        trigger_20_interact
     0000000C  ___bank_trigger_21_interact        trigger_21_interact
     0000000C  ___bank_trigger_22_interact        trigger_22_interact
     0000000C  ___bank_trigger_23_interact        trigger_23_interact
     0000000C  ___bank_trigger_24_interact        trigger_24_interact
     0000000C  ___bank_trigger_25_interact        trigger_25_interact
     0000000C  ___bank_trigger_26_interact        trigger_26_interact
     0000000C  ___bank_trigger_27_interact        trigger_27_interact
     0000000C  ___bank_trigger_28_interact        trigger_28_interact
     0000000C  ___bank_trigger_29_interact        trigger_29_interact
     0000000C  ___bank_trigger_2_interact         trigger_2_interact
     0000000C  ___bank_trigger_30_interact        trigger_30_interact
     0000000C  ___bank_trigger_31_interact        trigger_31_interact
     0000000C  ___bank_trigger_32_interact        trigger_32_interact
     0000000C  ___bank_trigger_33_interact        trigger_33_interact
     0000000C  ___bank_trigger_34_interact        trigger_34_interact
     0000000C  ___bank_trigger_35_interact        trigger_35_interact
     0000000C  ___bank_trigger_36_interact        trigger_36_interact
     0000000C  ___bank_trigger_37_interact        trigger_37_interact
     0000000C  ___bank_trigger_39_interact        trigger_39_interact
     0000000C  ___bank_trigger_3_interact         trigger_3_interact
     0000000C  ___bank_trigger_40_interact        trigger_40_interact
     0000000C  ___bank_trigger_41_interact        trigger_41_interact
     0000000C  ___bank_trigger_4_interact         trigger_4_interact
     0000000C  ___bank_trigger_5_interact         trigger_5_interact
     0000000C  ___bank_trigger_6_interact         trigger_6_interact
     0000000C  ___bank_trigger_7_interact         trigger_7_interact
     0000000C  ___bank_trigger_8_interact         trigger_8_interact
     0000000C  ___bank_trigger_9_interact         trigger_9_interact
     0000000C  __start_save                    
     0000000C  b_CGBZeroPalette                   palette
     0000000C  b_camera_init                      camera
     0000000C  b_events_init                      events
     0000000C  b_input_init                       input
ASxxxx Linker V03.00/V05.40 + sdld,  page 15.
Hexadecimal  [32-Bits]

Area                                    Addr        Size        Decimal Bytes (Attributes)
--------------------------------        ----        ----        ------- ----- ------------
.  .ABS.                            00000000    00000000 =           0. bytes (ABS,CON)

      Value  Global                              Global Defined In Module
      -----  --------------------------------   ------------------------
     0000000C  b_logo_init                        logo
     0000000C  b_logo_update                      logo
     0000000C  b_palette_init                     palette
     0000000C  b_parallax_init                    parallax
     0000000C  b_remove_LCD_ISRs                  interrupts
     0000000C  b_restore_sram                     flasher
     0000000C  b_restore_sram_bank                flasher
     0000000C  b_save_sram                        flasher
     0000000C  b_scroll_rect                      
     0000000C  b_timers_init                      events
     0000000C  b_vm_save_clear                    vm_load_save
     0000000C  b_vm_save_peek                     vm_load_save
     0000000C  b_vm_scene_pop                     vm_scene
     0000000C  b_vm_scene_pop_all                 vm_scene
     0000000C  b_vm_scene_push                    vm_scene
     0000000C  b_vm_scene_stack_reset             vm_scene
     0000001A  l__INITIALIZED                  
     0000001A  l__INITIALIZER                  
     00000027  l__GSINIT                       
     00000030  l__HEADER7                      
     00000060  l__HEADER4                      
     000000AB  l__HEADER11                     
     000001CB  l__CRASH_SCRATCH2               
     00000200  s__CODE                         
     00000ECE  l__CODE                         
     000010CE  s__HOME                         
     00001993  l__DATA                         
     00002000  _rROMB0                            
     00002D53  l__HOME                         
     00003000  _rROMB1                            
     00003A8B  l__CODE_12                      
     00003E21  s__BASE                         
     00003E21  s__CODE_0                       
     00003E21  s__INITIALIZER                  
     00003E21  s__LIT                          
     00003E3B  s__GSINIT                       
     00003E62  s__GSFINAL                      
     00003FFB  l__CODE_11                      
     00003FFC  l__CODE_10                      
     00003FFC  l__CODE_8                       
     00003FFD  l__CODE_9                       
     00003FFE  l__CODE_6                       
     00003FFF  l__CODE_1                       
     00004000  _RTC_SELECT_REG                    vm_rtc
     00004000  _rRAMB                             
     00004000  l__CODE_2                       
     00004000  l__CODE_3                       
     00004000  l__CODE_4                       
     00004000  l__CODE_5                       
     00004000  l__CODE_7                       
     00006000  _RTC_LATCH_REG                     vm_rtc
ASxxxx Linker V03.00/V05.40 + sdld,  page 16.
Hexadecimal  [32-Bits]

Area                                    Addr        Size        Decimal Bytes (Attributes)
--------------------------------        ----        ----        ------- ----- ------------
.  .ABS.                            00000000    00000000 =           0. bytes (ABS,CON)

      Value  Global                              Global Defined In Module
      -----  --------------------------------   ------------------------
     00008000  __VRAM                             
     00008000  __VRAM8000                         
     00008800  __VRAM8800                         
     00009000  __VRAM9000                         
     00009800  __SCRN0                            
     00009C00  __SCRN1                            
     0000A000  _RTC_VALUE_REG                     vm_rtc
     0000A000  __SRAM                             
     0000C000  __RAM                              
     0000C000  _shadow_OAM                     
     0000C0A0  s__DATA                         
     0000D000  __RAMBANK                          
     0000DA33  s__BSS                          
     0000DA33  s__INITIALIZED                  
     0000DA4D  s__HEAP                         
     0000DA4D  s__HEAP_END                     
     0000DF00  .STACK                          
     0000DF00  _shadow_OAM2                       absolute
     0000DFA0  _BkgPalette                        absolute
     0000DFE0  _vwf_tile_data                     absolute
     0000FE00  __OAMRAM                           
     0000FF00  _P1_REG                            
     0000FF00  __IO                               
     0000FF01  _SB_REG                            
     0000FF02  _SC_REG                            
     0000FF04  _DIV_REG                           
     0000FF05  _TIMA_REG                          
     0000FF06  _TMA_REG                           
     0000FF07  _TAC_REG                           
     0000FF0F  _IF_REG                            
     0000FF10  _NR10_REG                          
     0000FF11  _NR11_REG                          
     0000FF12  _NR12_REG                          
     0000FF13  _NR13_REG                          
     0000FF14  _NR14_REG                          
     0000FF16  _NR21_REG                          
     0000FF17  _NR22_REG                          
     0000FF18  _NR23_REG                          
     0000FF19  _NR24_REG                          
     0000FF1A  _NR30_REG                          
     0000FF1B  _NR31_REG                          
     0000FF1C  _NR32_REG                          
     0000FF1D  _NR33_REG                          
     0000FF1E  _NR34_REG                          
     0000FF20  _NR41_REG                          
     0000FF21  _NR42_REG                          
     0000FF22  _NR43_REG                          
     0000FF23  _NR44_REG                          
     0000FF24  _NR50_REG                          
     0000FF25  _NR51_REG                          
     0000FF26  _NR52_REG                          
ASxxxx Linker V03.00/V05.40 + sdld,  page 17.
Hexadecimal  [32-Bits]

Area                                    Addr        Size        Decimal Bytes (Attributes)
--------------------------------        ----        ----        ------- ----- ------------
.  .ABS.                            00000000    00000000 =           0. bytes (ABS,CON)

      Value  Global                              Global Defined In Module
      -----  --------------------------------   ------------------------
     0000FF30  _AUD3WAVE                          
     0000FF30  _PCM_SAMPLE                        
     0000FF30  __AUD3WAVERAM                      
     0000FF40  _LCDC_REG                          
     0000FF41  _STAT_REG                          
     0000FF42  _SCY_REG                           
     0000FF43  _SCX_REG                           
     0000FF44  _LY_REG                            
     0000FF45  _LYC_REG                           
     0000FF46  _DMA_REG                           
     0000FF47  _BGP_REG                           
     0000FF48  _OBP0_REG                          
     0000FF49  _OBP1_REG                          
     0000FF4A  _WY_REG                            
     0000FF4B  _WX_REG                            
     0000FF4D  _KEY1_REG                          
     0000FF4F  _VBK_REG                           
     0000FF51  _HDMA1_REG                         
     0000FF52  _HDMA2_REG                         
     0000FF53  _HDMA3_REG                         
     0000FF54  _HDMA4_REG                         
     0000FF55  _HDMA5_REG                         
     0000FF56  _RP_REG                            
     0000FF68  _BCPS_REG                          
     0000FF69  _BCPD_REG                          
     0000FF6A  _OCPS_REG                          
     0000FF6B  _OCPD_REG                          
     0000FF70  _SVBK_REG                          
     0000FF76  _PCM12_REG                         
     0000FF77  _PCM34_REG                         
     0000FF80  .refresh_OAM                    
     0000FF80  __HRAM                             
     0000FFFF  _IE_REG                            
     00014000  s__CODE_1                       
     00024000  s__CODE_2                       
     00034000  s__CODE_3                       
     00044000  s__CODE_4                       
     00054000  s__CODE_5                       
     00064000  s__CODE_6                       
     00074000  s__CODE_7                       
     00084000  s__CODE_8                       
     00094000  s__CODE_9                       
     000A4000  s__CODE_10                      
     000B4000  s__CODE_11                      
     000C4000  s__CODE_12                      

ASxxxx Linker V03.00/V05.40 + sdld,  page 18.
Hexadecimal  [32-Bits]

Area                                    Addr        Size        Decimal Bytes (Attributes)
--------------------------------        ----        ----        ------- ----- ------------
_CODE                               00000200    00000ECE =        3790. bytes (REL,CON)

      Value  Global                              Global Defined In Module
      -----  --------------------------------   ------------------------
     00000200  ___HandleCrash                     
     0000020A  _SIO_send_byte                     
     0000021D  _SIO_receive                       
     0000022E  _GetWinAddr                        
     00000236  _GetBkgAddr                        
     00000244  _state_init                        
     00000249  _state_update                      
     0000026B  _ui_time_masks                     
     00000273  _ui_print_shift_char               
     000002F6  _ui_draw_frame_row                 
     000002FF  .ui_draw_frame_row                 
     00000328  _script_cmds                       vm_instructions
     00000560  _save_signature                    game_signature
     00000564  _start_scene_x                     
     00000566  _start_scene_y                     
     00000568  _start_scene_dir                   
     00000569  _start_scene                       
     0000056C  _start_player_move_speed           
     0000056D  _start_player_anim_tick            
     0000056E  _ui_fonts                          
     00000574  _core_reset_hook                   main
     0000057C  _main                              main
     00000584  _state_start_fns                   
     00000593  _state_update_fns                  
     000005A2  _hUGE_init                         hUGEDriver_obj
     000005A4  hUGE_init                          hUGEDriver_obj
     000005FA  _hUGE_mute_channel                 hUGEDriver_obj
     000005FC  hUGE_mute_channel                  hUGEDriver_obj
     0000084A  _hUGE_set_position                 hUGEDriver_obj
     0000084C  hUGE_set_position                  hUGEDriver_obj
     00000A11  _hUGE_dosound                      hUGEDriver_obj
     00000A11  hUGE_dosound                       hUGEDriver_obj
     00000D3D  _get_vram_byte                     
     00000D45  _get_win_tile_xy                   
     00000D4D  _get_bkg_tile_xy                   
     00000D74  _set_sprite_palette                CGB
     00000D79  _set_bkg_palette                   CGB
     00000D7C  .set_palette                       CGB
     00000D9B  _set_sprite_palette_entry          CGB
     00000DA0  _set_bkg_palette_entry             CGB
     00000DA3  .set_palette_entry                 CGB
     00000DBF  _hide_sprites_range                Metasprites
     00000DEE  __mulsuchar                        mul
     00000DF1  __muluschar                        mul
     00000DFA  __mulschar                         mul
     00000E02  __mulint                           mul
     00000E21  __muluchar                         mul
     00000E33  _set_vram_byte                     
     00000E3C  _set_win_tile_xy                   
     00000E45  _set_bkg_tile_xy                   
ASxxxx Linker V03.00/V05.40 + sdld,  page 19.
Hexadecimal  [32-Bits]

Area                                    Addr        Size        Decimal Bytes (Attributes)
--------------------------------        ----        ----        ------- ----- ------------
_CODE                               00000200    00000ECE =        3790. bytes (REL,CON)

      Value  Global                              Global Defined In Module
      -----  --------------------------------   ------------------------
     00000E74  .sgb_check                         
     00000E74  _sgb_check                         
     00000EBC  _sgb_transfer                      
     00000EC1  .sgb_transfer                      
     00000F02  .copy_vram                         
     00000F08  _get_data                          
     00000F08  _set_data                          
     00000F08  _vmemcpy                           
     00000F56  ___move_metasprite                 Metasprites
     00000F93  ___memcpy                          
     00000F93  _memcpy                            
     00000FC5  _cpu_slow                          CGB
     00000FE0  _cpu_fast                          CGB
     00000FE7  __divsuchar                        divmod
     00000FED  __modsuchar                        divmod
     00000FF6  __divuschar                        divmod
     00000FFF  __moduschar                        divmod
     0000100B  __divschar                         divmod
     00001010  __modschar                         divmod
     00001017  __divsint                          divmod
     00001020  __modsint                          divmod
     0000102C  __divuchar                         divmod
     00001031  __moduchar                         divmod
     00001038  __divuint                          divmod
     00001041  __moduint                          divmod
     0000104D  .div8                              divmod
     0000104D  .mod8                              divmod
     00001055  .div16                             divmod
     00001055  .mod16                             divmod
     0000108B  .divu8                             divmod
     0000108B  .modu8                             divmod
     0000108E  .divu16                            divmod
     0000108E  .modu16                            divmod

ASxxxx Linker V03.00/V05.40 + sdld,  page 20.
Hexadecimal  [32-Bits]

Area                                    Addr        Size        Decimal Bytes (Attributes)
--------------------------------        ----        ----        ------- ----- ------------
_HEADER0                            00000000    00000001 =           1. bytes (ABS,CON)

      Value  Global                              Global Defined In Module
      -----  --------------------------------   ------------------------
     00000020  .call_hl                           Runtime

ASxxxx Linker V03.00/V05.40 + sdld,  page 21.
Hexadecimal  [32-Bits]

Area                                    Addr        Size        Decimal Bytes (Attributes)
--------------------------------        ----        ----        ------- ----- ------------
_HEADER1                            00000000    00000005 =           5. bytes (ABS,CON)

      Value  Global                              Global Defined In Module
      -----  --------------------------------   ------------------------
     00000028  .MemsetSmall                       Runtime

ASxxxx Linker V03.00/V05.40 + sdld,  page 22.
Hexadecimal  [32-Bits]

Area                                    Addr        Size        Decimal Bytes (Attributes)
--------------------------------        ----        ----        ------- ----- ------------
_HEADER2                            00000000    00000007 =           7. bytes (ABS,CON)

      Value  Global                              Global Defined In Module
      -----  --------------------------------   ------------------------
     00000030  .MemcpySmall                       Runtime

ASxxxx Linker V03.00/V05.40 + sdld,  page 23.
Hexadecimal  [32-Bits]

Area                                    Addr        Size        Decimal Bytes (Attributes)
--------------------------------        ----        ----        ------- ----- ------------
_HEADER3                            00000000    00000008 =           8. bytes (ABS,CON)

      Value  Global                              Global Defined In Module
      -----  --------------------------------   ------------------------
ASxxxx Linker V03.00/V05.40 + sdld,  page 24.
Hexadecimal  [32-Bits]

Area                                    Addr        Size        Decimal Bytes (Attributes)
--------------------------------        ----        ----        ------- ----- ------------
_HEADER4                            00000000    00000060 =          96. bytes (ABS,CON)

      Value  Global                              Global Defined In Module
      -----  --------------------------------   ------------------------
     00000080  .int                               Runtime
     0000008F  _wait_int_handler                  Runtime
     0000009C  __standard_VBL_handler             Runtime
     000000AB  _refresh_OAM                       Runtime
     000000CC  _set_interrupts                    Runtime

ASxxxx Linker V03.00/V05.40 + sdld,  page 25.
Hexadecimal  [32-Bits]

Area                                    Addr        Size        Decimal Bytes (Attributes)
--------------------------------        ----        ----        ------- ----- ------------
_HEADER5                            00000000    00000001 =           1. bytes (ABS,CON)

      Value  Global                              Global Defined In Module
      -----  --------------------------------   ------------------------
ASxxxx Linker V03.00/V05.40 + sdld,  page 26.
Hexadecimal  [32-Bits]

Area                                    Addr        Size        Decimal Bytes (Attributes)
--------------------------------        ----        ----        ------- ----- ------------
_HEADER6                            00000000    00000002 =           2. bytes (ABS,CON)

      Value  Global                              Global Defined In Module
      -----  --------------------------------   ------------------------
ASxxxx Linker V03.00/V05.40 + sdld,  page 27.
Hexadecimal  [32-Bits]

Area                                    Addr        Size        Decimal Bytes (Attributes)
--------------------------------        ----        ----        ------- ----- ------------
_HEADER7                            00000000    00000030 =          48. bytes (ABS,CON)

      Value  Global                              Global Defined In Module
      -----  --------------------------------   ------------------------
ASxxxx Linker V03.00/V05.40 + sdld,  page 28.
Hexadecimal  [32-Bits]

Area                                    Addr        Size        Decimal Bytes (Attributes)
--------------------------------        ----        ----        ------- ----- ------------
_HEADER8                            00000000    00000006 =           6. bytes (ABS,CON)

      Value  Global                              Global Defined In Module
      -----  --------------------------------   ------------------------
ASxxxx Linker V03.00/V05.40 + sdld,  page 29.
Hexadecimal  [32-Bits]

Area                                    Addr        Size        Decimal Bytes (Attributes)
--------------------------------        ----        ----        ------- ----- ------------
_HEADER9                            00000000    00000003 =           3. bytes (ABS,CON)

      Value  Global                              Global Defined In Module
      -----  --------------------------------   ------------------------
ASxxxx Linker V03.00/V05.40 + sdld,  page 30.
Hexadecimal  [32-Bits]

Area                                    Addr        Size        Decimal Bytes (Attributes)
--------------------------------        ----        ----        ------- ----- ------------
_HEADERa                            00000000    00000001 =           1. bytes (ABS,CON)

      Value  Global                              Global Defined In Module
      -----  --------------------------------   ------------------------
ASxxxx Linker V03.00/V05.40 + sdld,  page 31.
Hexadecimal  [32-Bits]

Area                                    Addr        Size        Decimal Bytes (Attributes)
--------------------------------        ----        ----        ------- ----- ------------
_HEADERb                            00000000    00000001 =           1. bytes (ABS,CON)

      Value  Global                              Global Defined In Module
      -----  --------------------------------   ------------------------
ASxxxx Linker V03.00/V05.40 + sdld,  page 32.
Hexadecimal  [32-Bits]

Area                                    Addr        Size        Decimal Bytes (Attributes)
--------------------------------        ----        ----        ------- ----- ------------
_HEADERc                            00000000    00000001 =           1. bytes (ABS,CON)

      Value  Global                              Global Defined In Module
      -----  --------------------------------   ------------------------
ASxxxx Linker V03.00/V05.40 + sdld,  page 33.
Hexadecimal  [32-Bits]

Area                                    Addr        Size        Decimal Bytes (Attributes)
--------------------------------        ----        ----        ------- ----- ------------
_HEADERd                            00000000    00000002 =           2. bytes (ABS,CON)

      Value  Global                              Global Defined In Module
      -----  --------------------------------   ------------------------
ASxxxx Linker V03.00/V05.40 + sdld,  page 34.
Hexadecimal  [32-Bits]

Area                                    Addr        Size        Decimal Bytes (Attributes)
--------------------------------        ----        ----        ------- ----- ------------
_HEADERe                            00000000    00000001 =           1. bytes (ABS,CON)

      Value  Global                              Global Defined In Module
      -----  --------------------------------   ------------------------
ASxxxx Linker V03.00/V05.40 + sdld,  page 35.
Hexadecimal  [32-Bits]

Area                                    Addr        Size        Decimal Bytes (Attributes)
--------------------------------        ----        ----        ------- ----- ------------
_HEADERf                            00000000    00000001 =           1. bytes (ABS,CON)

      Value  Global                              Global Defined In Module
      -----  --------------------------------   ------------------------
ASxxxx Linker V03.00/V05.40 + sdld,  page 36.
Hexadecimal  [32-Bits]

Area                                    Addr        Size        Decimal Bytes (Attributes)
--------------------------------        ----        ----        ------- ----- ------------
_HEADER10                           00000000    00000002 =           2. bytes (ABS,CON)

      Value  Global                              Global Defined In Module
      -----  --------------------------------   ------------------------
ASxxxx Linker V03.00/V05.40 + sdld,  page 37.
Hexadecimal  [32-Bits]

Area                                    Addr        Size        Decimal Bytes (Attributes)
--------------------------------        ----        ----        ------- ----- ------------
_HEADER11                           00000000    000000AB =         171. bytes (ABS,CON)

      Value  Global                              Global Defined In Module
      -----  --------------------------------   ------------------------
     00000150  .reset                             Runtime
     00000150  _reset                             Runtime
     00000157  .code_start                        Runtime
     000001B9  _exit                              Runtime
     000001BD  .wait_vbl_done                     Runtime
     000001BD  _vsync                             Runtime
     000001BD  _wait_vbl_done                     Runtime
     000001CD  .remove_VBL                        Runtime
     000001CD  _remove_VBL                        Runtime
     000001D0  .remove_int                        Runtime
     000001ED  .add_VBL                           Runtime
     000001ED  _add_VBL                           Runtime
     000001F0  .add_int                           Runtime

ASxxxx Linker V03.00/V05.40 + sdld,  page 38.
Hexadecimal  [32-Bits]

Area                                    Addr        Size        Decimal Bytes (Attributes)
--------------------------------        ----        ----        ------- ----- ------------
_HOME                               000010CE    00002D53 =       11603. bytes (REL,CON)

      Value  Global                              Global Defined In Module
      -----  --------------------------------   ------------------------
     000010CE  .memset_simple                     Runtime
     000010D7  .memcpy_simple                     Runtime
     000010F4  .display_off                       Runtime
     000010F4  _display_off                       Runtime
     0000110C  _actors_update                     actor
     00001572  _SetBankedBkgData                  bankdata
     0000158E  _SetBankedSpriteData               bankdata
     000015AA  _SetBankedBkgTiles                 bankdata
     000015C6  _SetBankedWinTiles                 bankdata
     000015E2  _ReadBankedFarPtr                  bankdata
     00001604  _ReadBankedUWORD                   bankdata
     0000161E  _MemcpyBanked                      bankdata
     00001640  _MemcpyVRAMBanked                  bankdata
     0000166F  _IndexOfFarPtr                     bankdata
     000016F4  _camera_update                     camera
     00001827  _load_animations                   data_manager
     00001880  _events_update                     events
     00001953  _timers_update                     events
     000019DC  _input_update                      input
     000019FF  .sio_ISR                           
     00001A59  .timer_ISR                         
     00001A6E  _simple_LCD_isr                    interrupts
     00001AED  _fullscreen_LCD_isr                interrupts
     00001B19  _VBL_isr                           interrupts
     00001B63  _isqrt                             math
     00001BC0  _sine_wave                         math
     00001CC0  _dir_lookup                        math
     00001CC8  _dir_angle_lookup                  math
     00001CCC  _hUGETrackerRoutine                music_manager
     00001CF3  _music_events_update               music_manager
     00001D75  _music_play_isr                    music_manager
     00001E16  _parallax_LCD_isr                  parallax
     00001E53  _projectiles_update                projectiles
     000022D4  _projectiles_render                projectiles
     00002429  _scroll_load_pending_row           scroll
     000024AF  _scroll_load_row                   scroll
     00002524  _scroll_load_col                   scroll
     0000258D  _scroll_load_pending_col           scroll
     00002615  _set_bkg_submap                    
     00002658  _set_xy_win_submap                 
     00002685  .set_xy_win_submap                 
     0000268E  .set_xy_bkg_submap                 
     0000269D  .set_xy_submap                     
     000026E9  _sfx_play_isr                      sfx_player
     000027C2  _on_SIO_receive                    sio
     00002803  _SIO_update                        sio
     0000286A  _ui_update                         ui
     000029A2  _vm_sgb_transfer                   vm_sgb
     000029EF  _vm_load_text                      vm_ui
     00002C45  _vm_switch                         vm
ASxxxx Linker V03.00/V05.40 + sdld,  page 39.
Hexadecimal  [32-Bits]

Area                                    Addr        Size        Decimal Bytes (Attributes)
--------------------------------        ----        ----        ------- ----- ------------
_HOME                               000010CE    00002D53 =       11603. bytes (REL,CON)

      Value  Global                              Global Defined In Module
      -----  --------------------------------   ------------------------
     00002D76  _vm_beginthread                    vm
     00002E9A  _vm_rpn                            vm
     000038B2  _vm_get_far                        vm
     00003920  _vm_call_native                    vm
     00003933  _VM_STEP                           vm
     0000399D  _script_runner_update              vm
     00003B02  _fill_win_rect                     
     00003B14  _rand                              
     00003B14  _randw                             
     00003B3F  _initrand                          
     00003B41  .initrand                          
     00003B4A  _get_bkg_data                      
     00003B4A  _get_win_data                      
     00003B97  _get_sprite_data                   
     00003BCA  _abs                               abs
     00003BD7  _set_win_tiles                     
     00003BEB  _set_tile_data                     
     00003BF0  _set_bkg_data                      
     00003BF0  _set_win_data                      
     00003BF8  _set_sprite_data                   
     00003C28  _reverse                           reverse
     00003C5C  ___call__banked                    far_ptr
     00003C79  _to_far_ptr                        far_ptr
     00003CAF  .add_LCD                           
     00003CAF  _add_LCD                           
     00003CB5  .remove_LCD                        
     00003CB5  _remove_LCD                        
     00003CBB  .fill_rect_wtt                     
     00003CC4  .fill_rect_btt                     
     00003D11  _fill_bkg_rect                     
     00003D23  .padup                             
     00003D23  _waitpadup                         
     00003D33  .jpad                              
     00003D33  _joypad                            
     00003D5B  _waitpad                           
     00003D5C  .wait_pad                          
     00003D63  ___sdcc_call_hl                    call_hl
     00003D64  _memset                            memset
     00003D97  .set_xy_wtt                        SetTileMap
     00003DA0  .set_xy_btt                        SetTileMap
     00003DAF  .set_xy_tt                         SetTileMap
     00003DF3  ___sdcc_bcall_ehl                  
     00003E0D  _set_bkg_tiles                     
ASxxxx Linker V03.00/V05.40 + sdld,  page 40.
Hexadecimal  [32-Bits]

Area                                    Addr        Size        Decimal Bytes (Attributes)
--------------------------------        ----        ----        ------- ----- ------------
_INITIALIZER                        00003E21    0000001A =          26. bytes (REL,CON)

      Value  Global                              Global Defined In Module
      -----  --------------------------------   ------------------------
ASxxxx Linker V03.00/V05.40 + sdld,  page 41.
Hexadecimal  [32-Bits]

Area                                    Addr        Size        Decimal Bytes (Attributes)
--------------------------------        ----        ----        ------- ----- ------------
_GSINIT                             00003E3B    00000027 =          39. bytes (REL,CON)

      Value  Global                              Global Defined In Module
      -----  --------------------------------   ------------------------
     00003E3B  gsinit                             Runtime

ASxxxx Linker V03.00/V05.40 + sdld,  page 42.
Hexadecimal  [32-Bits]

Area                                    Addr        Size        Decimal Bytes (Attributes)
--------------------------------        ----        ----        ------- ----- ------------
_GSFINAL                            00003E62    00000001 =           1. bytes (REL,CON)

      Value  Global                              Global Defined In Module
      -----  --------------------------------   ------------------------
ASxxxx Linker V03.00/V05.40 + sdld,  page 43.
Hexadecimal  [32-Bits]

Area                                    Addr        Size        Decimal Bytes (Attributes)
--------------------------------        ----        ----        ------- ----- ------------
_DATA                               0000C0A0    00001993 =        6547. bytes (REL,CON)

      Value  Global                              Global Defined In Module
      -----  --------------------------------   ------------------------
     0000C0A0  __cpu                              Runtime
     0000C0A1  __is_GBA                           Runtime
     0000C0A2  .mode                              Runtime
     0000C0A3  .sys_time                          Runtime
     0000C0A3  _sys_time                          Runtime
     0000C0A5  .int_0x40                          Runtime
     0000C0B1  _actors                            actor
     0000C4F5  _actors_active_head                actor
     0000C4F7  _actors_active_tail                actor
     0000C4F9  _actors_inactive_head              actor
     0000C4FB  _screen_x                          actor
     0000C4FC  _screen_y                          actor
     0000C4FD  _invalid                           actor
     0000C4FF  _player_moving                     actor
     0000C500  _player_iframes                    actor
     0000C501  _player_collision_actor            actor
     0000C503  _emote_actor                       actor
     0000C505  _emote_timer                       actor
     0000C506  _allocated_sprite_tiles            actor
     0000C507  _allocated_hardware_sprites        actor
     0000C514  _camera_x                          camera
     0000C516  _camera_y                          camera
     0000C518  _camera_offset_x                   camera
     0000C519  _camera_offset_y                   camera
     0000C51A  _camera_deadzone_x                 camera
     0000C51B  _camera_deadzone_y                 camera
     0000C51C  _camera_settings                   camera
     0000C520  _current_scene                     data_manager
     0000C523  _image_bank                        data_manager
     0000C524  _image_ptr                         data_manager
     0000C526  _image_attr_bank                   data_manager
     0000C527  _image_attr_ptr                    data_manager
     0000C529  _collision_bank                    data_manager
     0000C52A  _collision_ptr                     data_manager
     0000C52C  _image_tile_width                  data_manager
     0000C52D  _image_tile_height                 data_manager
     0000C52E  _image_width                       data_manager
     0000C530  _image_height                      data_manager
     0000C532  _sprites_len                       data_manager
     0000C533  _actors_len                        data_manager
     0000C534  _projectiles_len                   data_manager
     0000C535  _player_sprite_len                 data_manager
     0000C536  _scene_type                        data_manager
     0000C537  _scene_LCD_type                    data_manager
     0000C538  _scene_stack                       data_manager
     0000C578  _scene_stack_ptr                   data_manager
     0000C57A  _scene_sprites_base_tiles          data_manager
     0000C5BA  _input_events                      events
     0000C5E2  _input_slots                       events
     0000C5EA  _timer_events                      events
ASxxxx Linker V03.00/V05.40 + sdld,  page 44.
Hexadecimal  [32-Bits]

Area                                    Addr        Size        Decimal Bytes (Attributes)
--------------------------------        ----        ----        ------- ----- ------------
_DATA                               0000C0A0    00001993 =        6547. bytes (REL,CON)

      Value  Global                              Global Defined In Module
      -----  --------------------------------   ------------------------
     0000C5FE  _timer_values                      events
     0000C606  _fade_running                      fade_manager
     0000C607  _fade_frames_per_step              fade_manager
     0000C608  _fade_timer                        fade_manager
     0000C610  _joypads                           input
     0000C615  _frame_joy                         input
     0000C616  _last_joy                          input
     0000C617  _recent_joy                        input
     0000C618  _SIO_status                        
     0000C619  _link_byte_sent                    
     0000C61A  _link_next_mode                    
     0000C61B  _save_blob_size                    load_save
     0000C61D  _routine_queue                     music_manager
     0000C621  _routine_queue_head                music_manager
     0000C622  _routine_queue_tail                music_manager
     0000C623  _music_events                      music_manager
     0000C637  _music_current_track_bank          music_manager
     0000C638  _music_mute_mask                   music_manager
     0000C639  _music_effective_mute              music_manager
     0000C63A  _music_next_track                  music_manager
     0000C63C  _music_current_track               music_manager
     0000C63E  _music_play_isr_counter            music_manager
     0000C63F  _music_play_isr_pause              music_manager
     0000C640  _music_global_mute_mask            music_manager
     0000C641  _music_sfx_priority                music_manager
     0000C642  _DMG_palette                       palette
     0000C645  _SprPalette                        palette
     0000C685  _parallax_rows                     parallax
     0000C697  _parallax_row                      parallax
     0000C699  _projectiles                       projectiles
     0000C752  _projectile_defs                   projectiles
     0000C7C5  _projectiles_active_head           projectiles
     0000C7C7  _projectiles_inactive_head         projectiles
     0000C7CE  _scroll_x                          scroll
     0000C7D0  _scroll_y                          scroll
     0000C7D2  _draw_scroll_x                     scroll
     0000C7D4  _draw_scroll_y                     scroll
     0000C7D6  _scroll_x_max                      scroll
     0000C7D8  _scroll_y_max                      scroll
     0000C7DA  _scroll_offset_x                   scroll
     0000C7DB  _scroll_offset_y                   scroll
     0000C7DC  _pending_h_x                       scroll
     0000C7DD  _pending_h_y                       scroll
     0000C7DE  _pending_h_i                       scroll
     0000C7DF  _pending_w_x                       scroll
     0000C7E0  _pending_w_y                       scroll
     0000C7E1  _pending_w_i                       scroll
     0000C7E2  _current_row                       scroll
     0000C7E4  _new_row                           scroll
     0000C7E6  _current_col                       scroll
     0000C7E8  _new_col                           scroll
ASxxxx Linker V03.00/V05.40 + sdld,  page 45.
Hexadecimal  [32-Bits]

Area                                    Addr        Size        Decimal Bytes (Attributes)
--------------------------------        ----        ----        ------- ----- ------------
_DATA                               0000C0A0    00001993 =        6547. bytes (REL,CON)

      Value  Global                              Global Defined In Module
      -----  --------------------------------   ------------------------
     0000C7EA  .image_tile_width                  
     0000C7EB  _sfx_play_bank                     sfx_player
     0000C7EC  _sfx_play_sample                   sfx_player
     0000C7EE  _sfx_frame_skip                    sfx_player
     0000C7EF  _link_operation_mode               sio
     0000C7F0  _link_packet                       sio
     0000C810  _link_packet_len                   sio
     0000C811  _link_packet_ptr                   sio
     0000C813  _link_packet_received              sio
     0000C814  _link_packet_snd_len               sio
     0000C815  _link_packet_snd_ptr               sio
     0000C817  _link_packet_sent                  sio
     0000C818  __is_CGB                           system
     0000C819  __is_SGB                           system
     0000C81A  __current_ram_bank                 system
     0000C81B  _triggers                          trigger
     0000C913  _last_trigger_tx                   trigger
     0000C914  _last_trigger_ty                   trigger
     0000C915  _last_trigger                      trigger
     0000C916  _win_pos_x                         ui
     0000C917  _win_dest_pos_x                    ui
     0000C918  _win_pos_y                         ui
     0000C919  _win_dest_pos_y                    ui
     0000C91A  _win_speed                         ui
     0000C91B  _text_drawn                        ui
     0000C91C  _current_text_speed                ui
     0000C91D  _text_options                      ui
     0000C91E  _text_in_speed                     ui
     0000C91F  _text_out_speed                    ui
     0000C920  _text_draw_speed                   ui
     0000C921  _text_ff_joypad                    ui
     0000C922  _text_ff                           ui
     0000C923  _text_bkg_fill                     ui
     0000C924  _ui_text_data                      ui
     0000CA2E  _vwf_current_mask                  ui
     0000CA2F  _vwf_current_rotate                ui
     0000CA30  _vwf_inverse_map                   ui
     0000CA31  _vwf_direction                     ui
     0000CA32  _vwf_current_font_desc             ui
     0000CA3A  _vwf_current_font_bank             ui
     0000CA3B  _vwf_current_font_idx              ui
     0000CA3C  _text_render_base_addr             ui
     0000CA3E  _text_scroll_addr                  ui
     0000CA40  _text_scroll_width                 ui
     0000CA41  _text_scroll_height                ui
     0000CA42  _text_scroll_fill                  ui
     0000CA43  _text_sound_mask                   ui
     0000CA44  _text_sound_bank                   ui
     0000CA45  _text_sound_data                   ui
     0000CA47  _overlay_priority                  ui
     0000CA48  _text_palette                      ui
ASxxxx Linker V03.00/V05.40 + sdld,  page 46.
Hexadecimal  [32-Bits]

Area                                    Addr        Size        Decimal Bytes (Attributes)
--------------------------------        ----        ----        ------- ----- ------------
_DATA                               0000C0A0    00001993 =        6547. bytes (REL,CON)

      Value  Global                              Global Defined In Module
      -----  --------------------------------   ------------------------
     0000CA4F  __itoa_fmt_len                     vm_ui_a
     0000CA50  .itoa_fmt_buf                      vm_ui_a
     0000CA53  _CTXS                              vm
     0000CB83  _first_ctx                         vm
     0000CB85  _free_ctxs                         vm
     0000CB87  _old_executing_ctx                 vm
     0000CB89  _executing_ctx                     vm
     0000CB8B  _vm_lock_state                     vm
     0000CB8C  _vm_loaded_state                   vm
     0000CB8D  _vm_exception_code                 vm
     0000CB8E  _vm_exception_params_length        vm
     0000CB8F  _vm_exception_params_bank          vm
     0000CB90  _vm_exception_params_offset        vm
     0000CB94  _script_memory                     vm
     0000D99A  _grounded                          platform
     0000D99B  _on_slope                          platform
     0000D99C  _slope_y                           platform
     0000D99D  _on_ladder                         platform
     0000D99E  _pl_vel_x                          platform
     0000D9A0  _pl_vel_y                          platform
     0000D9A2  _plat_min_vel                      platform
     0000D9A4  _plat_walk_vel                     platform
     0000D9A6  _plat_climb_vel                    platform
     0000D9A8  _plat_run_vel                      platform
     0000D9AA  _plat_walk_acc                     platform
     0000D9AC  _plat_run_acc                      platform
     0000D9AE  _plat_dec                          platform
     0000D9B0  _plat_jump_vel                     platform
     0000D9B2  _plat_grav                         platform
     0000D9B4  _plat_hold_grav                    platform
     0000D9B6  _plat_max_fall_vel                 platform
     0000D9B8  _shooter_reached_end               shmup
     0000D9B9  _shooter_dest                      shmup
     0000D9BB  _shooter_direction                 shmup
     0000D9BC  _topdown_grid                      topdown
     0000D9BD  ___rand_seed                       
     0000D9DB  _hUGE_current_wave                 hUGEDriver_obj
     0000D9DB  hUGE_current_wave                  hUGEDriver_obj
     0000D9DC  _hUGE_mute_mask                    hUGEDriver_obj
     0000DA23  ___call_banked_addr                far_ptr
     0000DA23  ___call_banked_ptr                 far_ptr
     0000DA25  ___call_banked_bank                far_ptr
     0000DA27  .int_0x48                          
     0000DA2F  ___current_metasprite              Metasprites
     0000DA31  ___current_base_tile               Metasprites
     0000DA32  ___current_base_prop               Metasprites
ASxxxx Linker V03.00/V05.40 + sdld,  page 47.
Hexadecimal  [32-Bits]

Area                                    Addr        Size        Decimal Bytes (Attributes)
--------------------------------        ----        ----        ------- ----- ------------
_INITIALIZED                        0000DA33    0000001A =          26. bytes (REL,CON)

      Value  Global                              Global Defined In Module
      -----  --------------------------------   ------------------------
     0000DA33  _fade_style                        fade_manager
     0000DA34  _game_time                         game_time
     0000DA35  _PRN_PKT_START                     gbprinter
     0000DA43  _hide_sprites                      interrupts
     0000DA44  _show_actors_on_overlay            interrupts
     0000DA45  _overlay_cut_scanline              interrupts
     0000DA46  __submap_tile_offset               
     0000DA47  _triggers_len                      trigger
     0000DA48  _exchange_state                    vm_sio
     0000DA49  _last_hit_trigger                  pointnclick
     0000DA4A  _shooter_scroll_speed              shmup
     0000DA4B  ___render_shadow_OAM               Metasprites
     0000DA4C  __map_tile_offset                  SetTileMap

ASxxxx Linker V03.00/V05.40 + sdld,  page 48.
Hexadecimal  [32-Bits]

Area                                    Addr        Size        Decimal Bytes (Attributes)
--------------------------------        ----        ----        ------- ----- ------------
_HRAM12                             00000000    00000003 =           3. bytes (ABS,CON)

      Value  Global                              Global Defined In Module
      -----  --------------------------------   ------------------------
     0000FF90  __current_bank                     Runtime
     0000FF92  __shadow_OAM_base                  Runtime

ASxxxx Linker V03.00/V05.40 + sdld,  page 49.
Hexadecimal  [32-Bits]

Area                                    Addr        Size        Decimal Bytes (Attributes)
--------------------------------        ----        ----        ------- ----- ------------
_CODE_1                             00014000    00003FFF =       16383. bytes (REL,CON)

      Value  Global                              Global Defined In Module
      -----  --------------------------------   ------------------------
     00014000  ___func_ACTOR                      actor
     00014000  _actors_init                       actor
     0001403A  _emote_offsets                     actor
     00014049  _emote_metasprite                  actor
     00014055  _player_init                       actor
     0001407B  _deactivate_actor                  actor
     000141DC  _activate_actor                    actor
     0001431B  _activate_actors_in_row            actor
     00014412  _activate_actors_in_col            actor
     00014563  _actor_set_frames                  actor
     000145B9  _actor_set_frame_offset            actor
     000145F4  _actor_get_frame_offset            actor
     00014606  _actor_set_anim_idle               actor
     00014634  _actor_set_anim_moving             actor
     00014665  _actor_set_dir                     actor
     000146CA  _actor_at_tile                     actor
     0001479E  _actor_in_front_of_player          actor
     00014852  _actor_overlapping_player          actor
     00014A61  _actor_overlapping_bb              actor
     00014CDF  _actors_handle_player_collision    actor
     00014D6B  _check_collision_in_direction      actor
     00015589  _scroll_init                       scroll
     000155B3  _scroll_reset                      scroll
     000155D3  _scroll_update                     scroll
     0001570A  _scroll_viewport                   scroll
     00015BA3  _scroll_repaint                    scroll
     00015BB3  _scroll_render_rows                scroll
     00015C49  _scroll_queue_row                  scroll
     00015C6B  _scroll_queue_col                  scroll
     00015CB6  _SIO_init                          sio
     00015CDF  _ui_swap_tiles                     
     00015D29  _ui_print_make_mask_lr             
     00015D45  _ui_print_make_mask_rl             
     00015D61  _ui_init                           ui
     00015E32  _ui_load_tiles                     ui
     00015E89  _ui_draw_frame                     ui
     00015F23  _ui_print_reset                    ui
     00015F74  _ui_set_start_tile                 ui
     00015FA0  _ui_print_render                   ui
     00016236  _ui_draw_text_buffer_char          ui
     00016720  _ui_run_menu                       ui
     000168F7  _ui_run_modal                      ui
     000169B1  ___func_VM_SGB                     vm_sgb
     000169B1  _platform_init                     platform
     00016B2B  _platform_update                   platform
ASxxxx Linker V03.00/V05.40 + sdld,  page 50.
Hexadecimal  [32-Bits]

Area                                    Addr        Size        Decimal Bytes (Attributes)
--------------------------------        ----        ----        ------- ----- ------------
_CODE_12                            000C4000    00003A8B =       14987. bytes (REL,CON)

      Value  Global                              Global Defined In Module
      -----  --------------------------------   ------------------------
     000C4000  _bootstrap_script                  
     000C400B  _camera_init                       camera
     000C4031  _events_init                       events
     000C4071  _timers_init                       events
     000C40B1  _restore_sram_bank                 flasher
     000C40E7  _restore_sram                      flasher
     000C40FD  _save_sram                         flasher
     000C4129  _input_init                        input
     000C414F  _remove_LCD_ISRs                   interrupts
     000C416A  _palette_init                      palette
     000C41A1  _CGBZeroPalette                    palette
     000C41B6  _parallax_init                     parallax
     000C41D6  _scroll_rect                       
     000C4213  ___func_VM_LOAD_SAVE               vm_load_save
     000C4213  _vm_save_clear                     vm_load_save
     000C4222  _vm_save_peek                      vm_load_save
     000C42A4  ___func_VM_SCENE                   vm_scene
     000C42A4  _vm_scene_push                     vm_scene
     000C431A  _vm_scene_pop                      vm_scene
     000C4328  _vm_scene_pop_all                  vm_scene
     000C4333  _vm_scene_stack_reset              vm_scene
     000C433C  GBVM$actor_10_update$e0baebe5_9b   actor_10_update
     000C433C  _actor_10_update                   actor_10_update
     000C4348  _actor_11_interact                 actor_11_interact
     000C435B  GBVM$actor_11_interact$cf03123a_   actor_11_interact
     000C4374  GBVM$actor_11_interact$24f3b935_   actor_11_interact
     000C437D  GBVM$actor_11_update$aaa2ff7a_92   actor_11_update
     000C437D  _actor_11_update                   actor_11_update
     000C4389  _actor_12_interact                 actor_12_interact
     000C439C  GBVM$actor_12_interact$f369ea59_   actor_12_interact
     000C43B5  GBVM$actor_12_interact$ba4b6aa2_   actor_12_interact
     000C43BE  GBVM$actor_12_update$9b696d76_ae   actor_12_update
     000C43BE  _actor_12_update                   actor_12_update
     000C43CA  _actor_13_interact                 actor_13_interact
     000C43DD  GBVM$actor_13_interact$cf03123a_   actor_13_interact
     000C43F6  GBVM$actor_13_interact$24f3b935_   actor_13_interact
     000C43FF  GBVM$actor_13_update$aaa2ff7a_92   actor_13_update
     000C43FF  _actor_13_update                   actor_13_update
     000C440B  _actor_14_interact                 actor_14_interact
     000C441E  GBVM$actor_14_interact$cf03123a_   actor_14_interact
     000C4437  GBVM$actor_14_interact$24f3b935_   actor_14_interact
     000C4440  GBVM$actor_14_update$aaa2ff7a_92   actor_14_update
     000C4440  _actor_14_update                   actor_14_update
     000C444C  _actor_15_interact                 actor_15_interact
     000C445F  GBVM$actor_15_interact$f369ea59_   actor_15_interact
     000C4478  GBVM$actor_15_interact$ba4b6aa2_   actor_15_interact
     000C4481  GBVM$actor_15_update$9b696d76_ae   actor_15_update
     000C4481  _actor_15_update                   actor_15_update
     000C448D  _actor_16_interact                 actor_16_interact
     000C44A0  GBVM$actor_16_interact$f369ea59_   actor_16_interact
ASxxxx Linker V03.00/V05.40 + sdld,  page 51.
Hexadecimal  [32-Bits]

Area                                    Addr        Size        Decimal Bytes (Attributes)
--------------------------------        ----        ----        ------- ----- ------------
_CODE_12                            000C4000    00003A8B =       14987. bytes (REL,CON)

      Value  Global                              Global Defined In Module
      -----  --------------------------------   ------------------------
     000C44B9  GBVM$actor_16_interact$ba4b6aa2_   actor_16_interact
     000C44C2  GBVM$actor_16_update$9b696d76_ae   actor_16_update
     000C44C2  _actor_16_update                   actor_16_update
     000C44CE  _actor_17_interact                 actor_17_interact
     000C44E1  GBVM$actor_17_interact$2ab3eea3_   actor_17_interact
     000C44FA  GBVM$actor_17_interact$31f9ba45_   actor_17_interact
     000C4503  GBVM$actor_17_update$e0baebe5_9b   actor_17_update
     000C4503  _actor_17_update                   actor_17_update
     000C450F  _actor_20_update                   actor_20_update
     000C4511  GBVM$actor_20_update$2b24c596_a5   actor_20_update
     000C451A  GBVM$actor_20_update$f72e2154_18   actor_20_update
     000C4526  GBVM$actor_20_update$1a4e3a8d_34   actor_20_update
     000C452F  GBVM_END$actor_20_update$2b24c59   actor_20_update
     000C4534  _actor_21_interact                 actor_21_interact
     000C4535  GBVM$actor_21_interact$81e0e15b_   actor_21_interact
     000C453C  _actor_22_interact                 actor_22_interact
     000C453D  GBVM$actor_22_interact$b2bd1d12_   actor_22_interact
     000C4544  _actor_23_interact                 actor_23_interact
     000C4545  GBVM$actor_23_interact$e2505426_   actor_23_interact
     000C454C  _actor_24_interact                 actor_24_interact
     000C454D  GBVM$actor_24_interact$a7e96c3d_   actor_24_interact
     000C4554  _actor_25_interact                 actor_25_interact
     000C4555  GBVM$actor_25_interact$6c95441f_   actor_25_interact
     000C45A7  _actor_26_interact                 actor_26_interact
     000C45A8  GBVM$actor_26_interact$5c40ff98_   actor_26_interact
     000C45F9  _actor_3_interact                  actor_3_interact
     000C460C  GBVM$actor_3_interact$133ffbca_6   actor_3_interact
     000C4622  GBVM$actor_3_interact$76da6451_c   actor_3_interact
     000C462B  GBVM$actor_3_update$d8eca49c_570   actor_3_update
     000C462B  _actor_3_update                    actor_3_update
     000C4637  _actor_4_interact                  actor_4_interact
     000C464A  GBVM$actor_4_interact$133ffbca_6   actor_4_interact
     000C4660  GBVM$actor_4_interact$76da6451_c   actor_4_interact
     000C4669  GBVM$actor_4_update$d8eca49c_570   actor_4_update
     000C4669  _actor_4_update                    actor_4_update
     000C4675  _actor_5_interact                  actor_5_interact
     000C4688  GBVM$actor_5_interact$133ffbca_6   actor_5_interact
     000C469E  GBVM$actor_5_interact$76da6451_c   actor_5_interact
     000C46A7  GBVM$actor_5_update$d8eca49c_570   actor_5_update
     000C46A7  _actor_5_update                    actor_5_update
     000C46B3  _actor_6_interact                  actor_6_interact
     000C46C6  GBVM$actor_6_interact$133ffbca_6   actor_6_interact
     000C46DC  GBVM$actor_6_interact$76da6451_c   actor_6_interact
     000C46E5  GBVM$actor_6_update$d8eca49c_570   actor_6_update
     000C46E5  _actor_6_update                    actor_6_update
     000C46F1  _actor_7_interact                  actor_7_interact
     000C4704  GBVM$actor_7_interact$133ffbca_6   actor_7_interact
     000C471A  GBVM$actor_7_interact$76da6451_c   actor_7_interact
     000C4723  GBVM$actor_7_update$d8eca49c_570   actor_7_update
     000C4723  _actor_7_update                    actor_7_update
     000C472F  _actor_8_interact                  actor_8_interact
ASxxxx Linker V03.00/V05.40 + sdld,  page 52.
Hexadecimal  [32-Bits]

Area                                    Addr        Size        Decimal Bytes (Attributes)
--------------------------------        ----        ----        ------- ----- ------------
_CODE_12                            000C4000    00003A8B =       14987. bytes (REL,CON)

      Value  Global                              Global Defined In Module
      -----  --------------------------------   ------------------------
     000C4742  GBVM$actor_8_interact$133ffbca_6   actor_8_interact
     000C4758  GBVM$actor_8_interact$76da6451_c   actor_8_interact
     000C4761  GBVM$actor_8_update$d8eca49c_570   actor_8_update
     000C4761  _actor_8_update                    actor_8_update
     000C476D  _actor_9_interact                  actor_9_interact
     000C4780  GBVM$actor_9_interact$133ffbca_6   actor_9_interact
     000C4796  GBVM$actor_9_interact$76da6451_c   actor_9_interact
     000C479F  GBVM$actor_9_update$d8eca49c_570   actor_9_update
     000C479F  _actor_9_update                    actor_9_update
     000C47AB  _actor_cat_interact                actor_cat_interact
     000C47AC  GBVM$actor_cat_interact$9769786a   actor_cat_interact
     000C47D6  GBVM$actor_cat_interact$c585ca68   actor_cat_interact
     000C47DC  _actor_hider_interact              actor_hider_interact
     000C47DF  GBVM$actor_hider_interact$687b82   actor_hider_interact
     000C47EA  GBVM$actor_hider_interact$2c8ba5   actor_hider_interact
     000C481D  GBVM$actor_hider_interact$226d13   actor_hider_interact
     000C4823  _actor_machine_1_interact          actor_machine_1_interact
     000C4824  GBVM$actor_machine_1_interact$f3   actor_machine_1_interact
     000C4859  _actor_machine_2_interact          actor_machine_2_interact
     000C485A  GBVM$actor_machine_2_interact$7f   actor_machine_2_interact
     000C488F  _actor_machine_interact            actor_machine_interact
     000C4890  GBVM$actor_machine_interact$d262   actor_machine_interact
     000C48C5  _actor_oblivious_guy_interact      actor_oblivious_guy_interact
     000C48C8  GBVM$actor_oblivious_guy_interac   actor_oblivious_guy_interact
     000C4907  GBVM$actor_oblivious_guy_interac   actor_oblivious_guy_interact
     000C490C  GBVM$actor_oblivious_guy_interac   actor_oblivious_guy_interact
     000C4916  _actor_radio_interact              actor_radio_interact
     000C4917  GBVM$actor_radio_interact$63aff0   actor_radio_interact
     000C4920  GBVM$actor_radio_interact$13e453   actor_radio_interact
     000C4921  GBVM$actor_radio_interact$c5a073   actor_radio_interact
     000C4929  GBVM$actor_radio_interact$3b2065   actor_radio_interact
     000C492D  GBVM$actor_radio_interact$7208df   actor_radio_interact
     000C4932  GBVM_END$actor_radio_interact$63   actor_radio_interact
     000C4933  _actor_rock_1_interact             actor_rock_1_interact
     000C4936  GBVM$actor_rock_1_interact$c0b97   actor_rock_1_interact
     000C49B2  _actor_rock_2_interact             actor_rock_2_interact
     000C49B5  GBVM$actor_rock_2_interact$716ff   actor_rock_2_interact
     000C4A31  _actor_rock_3_interact             actor_rock_3_interact
     000C4A34  GBVM$actor_rock_3_interact$603ea   actor_rock_3_interact
     000C4AB0  _actor_rock_interact               actor_rock_interact
     000C4AB3  GBVM$actor_rock_interact$5277cee   actor_rock_interact
     000C4B2F  _actor_sign_post_1_interact        actor_sign_post_1_interact
     000C4B30  GBVM$actor_sign_post_1_interact$   actor_sign_post_1_interact
     000C4B6F  GBVM$actor_sign_post_1_interact$   actor_sign_post_1_interact
     000C4BAA  _actor_sign_post_2_interact        actor_sign_post_2_interact
     000C4BAB  GBVM$actor_sign_post_2_interact$   actor_sign_post_2_interact
     000C4BF6  _actor_sign_post_3_interact        actor_sign_post_3_interact
     000C4BF7  GBVM$actor_sign_post_3_interact$   actor_sign_post_3_interact
     000C4C3A  _actor_sign_post_4_interact        actor_sign_post_4_interact
     000C4C3B  GBVM$actor_sign_post_4_interact$   actor_sign_post_4_interact
     000C4C79  _actor_sign_post_5_interact        actor_sign_post_5_interact
ASxxxx Linker V03.00/V05.40 + sdld,  page 53.
Hexadecimal  [32-Bits]

Area                                    Addr        Size        Decimal Bytes (Attributes)
--------------------------------        ----        ----        ------- ----- ------------
_CODE_12                            000C4000    00003A8B =       14987. bytes (REL,CON)

      Value  Global                              Global Defined In Module
      -----  --------------------------------   ------------------------
     000C4C7A  GBVM$actor_sign_post_5_interact$   actor_sign_post_5_interact
     000C4CB3  GBVM$actor_sign_post_5_interact$   actor_sign_post_5_interact
     000C4D01  _actor_sign_post_interact          actor_sign_post_interact
     000C4D02  GBVM$actor_sign_post_interact$f0   actor_sign_post_interact
     000C4D4F  ___func_avatar_font_0              avatar_font_0
     000C4D93  _avatar_font_0                     avatar_font_0
     000C4D9B  ___func_bg_black_tileset           bg_black_tileset
     000C4D9B  _bg_black_tileset                  bg_black_tileset
     000C4DAD  ___func_bg_black                   bg_black
     000C4DAD  _bg_black                          bg_black
     000C4DBB  ___func_bg_cave                    bg_cave
     000C4DBB  _bg_cave                           bg_cave
     000C4DC9  ___func_bg_hidden_cave             bg_hidden_cave
     000C4DC9  _bg_hidden_cave                    bg_hidden_cave
     000C4DD7  ___func_bg_house                   bg_house
     000C4DD7  _bg_house                          bg_house
     000C4DE5  ___func_bg_launch_site             bg_launch_site
     000C4DE5  _bg_launch_site                    bg_launch_site
     000C4DF3  ___func_bg_leaving_earth           bg_leaving_earth
     000C4DF3  _bg_leaving_earth                  bg_leaving_earth
     000C4E01  ___func_bg_logo                    bg_logo
     000C4E01  _bg_logo                           bg_logo
     000C4E0F  ___func_bg_menu_page1              bg_menu_page1
     000C4E0F  _bg_menu_page1                     bg_menu_page1
     000C4E1D  ___func_bg_menu_page2              bg_menu_page2
     000C4E1D  _bg_menu_page2                     bg_menu_page2
     000C4E2B  ___func_bg_parallax                bg_parallax
     000C4E2B  _bg_parallax                       bg_parallax
     000C4E39  ___func_bg_platform_path           bg_platform_path
     000C4E39  _bg_platform_path                  bg_platform_path
     000C4E47  ___func_bg_room                    bg_room
     000C4E47  _bg_room                           bg_room
     000C4E55  ___func_bg_sample_town             bg_sample_town
     000C4E55  _bg_sample_town                    bg_sample_town
     000C4E63  ___func_bg_stars_tileset           bg_stars_tileset
     000C4E63  _bg_stars_tileset                  bg_stars_tileset
     000C4EB5  ___func_bg_stars                   bg_stars
     000C4EB5  _bg_stars                          bg_stars
     000C4EC3  ___func_bg_titlescreen             bg_titlescreen
     000C4EC3  _bg_titlescreen                    bg_titlescreen
     000C4ED1  ___func_bg_underground             bg_underground
     000C4ED1  _bg_underground                    bg_underground
     000C4EDF  ___func_cursor_image               cursor_image
     000C4EDF  _cursor_image                      cursor_image
     000C4EEF  ___func_emote_anger                emote_anger
     000C4EEF  _emote_anger                       emote_anger
     000C4F2F  ___func_emote_music                emote_music
     000C4F2F  _emote_music                       emote_music
     000C4F6F  ___func_emote_pause                emote_pause
     000C4F6F  _emote_pause                       emote_pause
     000C4FAF  ___func_emote_shock                emote_shock
ASxxxx Linker V03.00/V05.40 + sdld,  page 54.
Hexadecimal  [32-Bits]

Area                                    Addr        Size        Decimal Bytes (Attributes)
--------------------------------        ----        ----        ------- ----- ------------
_CODE_12                            000C4000    00003A8B =       14987. bytes (REL,CON)

      Value  Global                              Global Defined In Module
      -----  --------------------------------   ------------------------
     000C4FAF  _emote_shock                       emote_shock
     000C4FEF  ___func_emote_sweat                emote_sweat
     000C4FEF  _emote_sweat                       emote_sweat
     000C502F  ___func_frame_image                frame_image
     000C502F  _frame_image                       frame_image
     000C50BF  ___func_palette_0                  palette_0
     000C50BF  _palette_0                         palette_0
     000C5102  ___func_palette_1                  palette_1
     000C5102  _palette_1                         palette_1
     000C5145  ___func_palette_10                 palette_10
     000C5145  _palette_10                        palette_10
     000C5188  ___func_palette_2                  palette_2
     000C5188  _palette_2                         palette_2
     000C51CB  ___func_palette_3                  palette_3
     000C51CB  _palette_3                         palette_3
     000C520E  ___func_palette_4                  palette_4
     000C520E  _palette_4                         palette_4
     000C5251  ___func_palette_5                  palette_5
     000C5251  _palette_5                         palette_5
     000C5294  ___func_palette_6                  palette_6
     000C5294  _palette_6                         palette_6
     000C52D7  ___func_palette_7                  palette_7
     000C52D7  _palette_7                         palette_7
     000C531A  ___func_palette_8                  palette_8
     000C531A  _palette_8                         palette_8
     000C535D  ___func_palette_9                  palette_9
     000C535D  _palette_9                         palette_9
     000C53A0  _scene_17_init                     scene_17_init
     000C53A1  GBVM$scene_17_init$919e8390_3d03   scene_17_init
     000C53A2  GBVM$scene_17_init$autofade$4ebc   scene_17_init
     000C53AE  ___func_scene_17_sprites           scene_17_sprites
     000C53AE  _scene_17_sprites                  scene_17_sprites
     000C53BD  ___func_scene_17_triggers          scene_17_triggers
     000C53BD  _scene_17_triggers                 scene_17_triggers
     000C53C5  ___func_scene_17                   scene_17
     000C53C5  _scene_17                          scene_17
     000C5400  _scene_cave_init                   scene_cave_init
     000C5401  GBVM$scene_cave_init$cb03e339_07   scene_cave_init
     000C5405  GBVM$scene_cave_init$afa86c47_5a   scene_cave_init
     000C5409  GBVM$scene_cave_init$autofade$5e   scene_cave_init
     000C5415  ___func_scene_cave_sprites         scene_cave_sprites
     000C5415  _scene_cave_sprites                scene_cave_sprites
     000C5421  ___func_scene_cave_triggers        scene_cave_triggers
     000C5421  _scene_cave_triggers               scene_cave_triggers
     000C5429  ___func_scene_cave                 scene_cave
     000C5429  _scene_cave                        scene_cave
     000C5464  ___func_scene_deep_space_actors    scene_deep_space_actors
     000C5464  _scene_deep_space_actors           scene_deep_space_actors
     000C5500  _scene_deep_space_init             scene_deep_space_init
     000C5503  GBVM$scene_deep_space_init$74f7e   scene_deep_space_init
     000C550D  GBVM$scene_deep_space_init$1a9ba   scene_deep_space_init
ASxxxx Linker V03.00/V05.40 + sdld,  page 55.
Hexadecimal  [32-Bits]

Area                                    Addr        Size        Decimal Bytes (Attributes)
--------------------------------        ----        ----        ------- ----- ------------
_CODE_12                            000C4000    00003A8B =       14987. bytes (REL,CON)

      Value  Global                              Global Defined In Module
      -----  --------------------------------   ------------------------
     000C5511  GBVM$scene_deep_space_init$5e70f   scene_deep_space_init
     000C5515  GBVM$scene_deep_space_init$autof   scene_deep_space_init
     000C5521  ___func_scene_deep_space_sprites   scene_deep_space_sprites
     000C5521  _scene_deep_space_sprites          scene_deep_space_sprites
     000C552A  ___func_scene_deep_space_trigger   scene_deep_space_triggers
     000C552A  _scene_deep_space_triggers         scene_deep_space_triggers
     000C5532  ___func_scene_deep_space           scene_deep_space
     000C5532  _scene_deep_space                  scene_deep_space
     000C556D  ___func_scene_deeper_underground   scene_deeper_underground_act
     000C556D  _scene_deeper_underground_actors   scene_deeper_underground_act
     000C55A1  _scene_deeper_underground_init     scene_deeper_underground_ini
     000C55A4  GBVM$scene_deeper_underground_in   scene_deeper_underground_ini
     000C55B0  GBVM$scene_deeper_underground_in   scene_deeper_underground_ini
     000C55BF  GBVM$scene_deeper_underground_in   scene_deeper_underground_ini
     000C55BF  GBVM_END$scene_deeper_undergroun   scene_deeper_underground_ini
     000C55C3  GBVM$scene_deeper_underground_in   scene_deeper_underground_ini
     000C55C7  GBVM$scene_deeper_underground_in   scene_deeper_underground_ini
     000C55D3  ___func_scene_deeper_underground   scene_deeper_underground_tri
     000C55D3  _scene_deeper_underground_trigge   scene_deeper_underground_tri
     000C55DB  ___func_scene_deeper_underground   scene_deeper_underground
     000C55DB  _scene_deeper_underground          scene_deeper_underground
     000C5616  ___func_scene_dream                scene_dream
     000C5616  _scene_dream                       scene_dream
     000C5651  _scene_launch_site_init            scene_launch_site_init
     000C5654  GBVM$scene_launch_site_init$4511   scene_launch_site_init
     000C565C  GBVM$scene_launch_site_init$e17e   scene_launch_site_init
     000C5660  GBVM$scene_launch_site_init$0556   scene_launch_site_init
     000C5664  GBVM$scene_launch_site_init$auto   scene_launch_site_init
     000C5670  ___func_scene_launch_site_sprite   scene_launch_site_sprites
     000C5670  _scene_launch_site_sprites         scene_launch_site_sprites
     000C5679  ___func_scene_launch_site_trigge   scene_launch_site_triggers
     000C5679  _scene_launch_site_triggers        scene_launch_site_triggers
     000C5689  ___func_scene_launch_site          scene_launch_site
     000C5689  _scene_launch_site                 scene_launch_site
     000C56C4  _scene_logo_init                   scene_logo_init
     000C56C7  GBVM$scene_logo_init$8343c54c_07   scene_logo_init
     000C56CF  GBVM$scene_logo_init$dfb4c321_31   scene_logo_init
     000C56D4  GBVM$scene_logo_init$autofade$38   scene_logo_init
     000C56DF  GBVM$scene_logo_init$e88fcc15_89   scene_logo_init
     000C56E6  GBVM$scene_logo_init$0677a82b_f7   scene_logo_init
     000C56F2  GBVM$scene_logo_init$9daba1e6_c0   scene_logo_init
     000C5725  ___func_scene_logo                 scene_logo
     000C5725  _scene_logo                        scene_logo
     000C5760  ___func_scene_menu_page_1          scene_menu_page_1
     000C5760  _scene_menu_page_1                 scene_menu_page_1
     000C579B  ___func_scene_menu_page_2          scene_menu_page_2
     000C579B  _scene_menu_page_2                 scene_menu_page_2
     000C57D6  ___func_scene_parallax_example_a   scene_parallax_example_actor
     000C57D6  _scene_parallax_example_actors     scene_parallax_example_actor
     000C583E  _scene_parallax_example_init       scene_parallax_example_init
     000C583F  GBVM$scene_parallax_example_init   scene_parallax_example_init
ASxxxx Linker V03.00/V05.40 + sdld,  page 56.
Hexadecimal  [32-Bits]

Area                                    Addr        Size        Decimal Bytes (Attributes)
--------------------------------        ----        ----        ------- ----- ------------
_CODE_12                            000C4000    00003A8B =       14987. bytes (REL,CON)

      Value  Global                              Global Defined In Module
      -----  --------------------------------   ------------------------
     000C5843  GBVM$scene_parallax_example_init   scene_parallax_example_init
     000C5847  GBVM$scene_parallax_example_init   scene_parallax_example_init
     000C5853  ___func_scene_parallax_example_t   scene_parallax_example_trigg
     000C5853  _scene_parallax_example_triggers   scene_parallax_example_trigg
     000C585B  ___func_scene_parallax_example     scene_parallax_example
     000C585B  _scene_parallax_example            scene_parallax_example
     000C5896  ___func_scene_path_to_sample_tow   scene_path_to_sample_town_sp
     000C5896  _scene_path_to_sample_town_sprit   scene_path_to_sample_town_sp
     000C58A2  ___func_scene_path_to_sample_tow   scene_path_to_sample_town_tr
     000C58A2  _scene_path_to_sample_town_trigg   scene_path_to_sample_town_tr
     000C58D2  ___func_scene_path_to_sample_tow   scene_path_to_sample_town
     000C58D2  _scene_path_to_sample_town         scene_path_to_sample_town
     000C590D  _scene_player_s_house_init         scene_player_s_house_init
     000C590E  GBVM$scene_player_s_house_init$7   scene_player_s_house_init
     000C5912  GBVM$scene_player_s_house_init$6   scene_player_s_house_init
     000C5916  GBVM$scene_player_s_house_init$a   scene_player_s_house_init
     000C5922  ___func_scene_player_s_house_tri   scene_player_s_house_trigger
     000C5922  _scene_player_s_house_triggers     scene_player_s_house_trigger
     000C597A  ___func_scene_player_s_house       scene_player_s_house
     000C597A  _scene_player_s_house              scene_player_s_house
     000C59B5  _scene_sample_town_init            scene_sample_town_init
     000C59B8  GBVM$scene_sample_town_init$2eb6   scene_sample_town_init
     000C59C0  GBVM$scene_sample_town_init$af22   scene_sample_town_init
     000C59C4  GBVM$scene_sample_town_init$cd43   scene_sample_town_init
     000C59C8  GBVM$scene_sample_town_init$1c3b   scene_sample_town_init
     000C59D0  GBVM$scene_sample_town_init$auto   scene_sample_town_init
     000C59D0  GBVM_END$scene_sample_town_init$   scene_sample_town_init
     000C59DC  ___func_scene_sample_town_sprite   scene_sample_town_sprites
     000C59DC  _scene_sample_town_sprites         scene_sample_town_sprites
     000C59F4  ___func_scene_sample_town_trigge   scene_sample_town_triggers
     000C59F4  _scene_sample_town_triggers        scene_sample_town_triggers
     000C5A64  ___func_scene_sample_town          scene_sample_town
     000C5A64  _scene_sample_town                 scene_sample_town
     000C5A9F  _scene_space_battle_init           scene_space_battle_init
     000C5AA2  GBVM$scene_space_battle_init$349   scene_space_battle_init
     000C5AA6  GBVM$scene_space_battle_init$ffb   scene_space_battle_init
     000C5AAF  GBVM$scene_space_battle_init$aut   scene_space_battle_init
     000C5ABA  GBVM$scene_space_battle_init$9fd   scene_space_battle_init
     000C5B0D  GBVM$scene_space_battle_init$66d   scene_space_battle_init
     000C5B11  GBVM$scene_space_battle_init$9fb   scene_space_battle_init
     000C5B1B  _scene_space_battle_p_hit1         scene_space_battle_p_hit1
     000C5B2E  GBVM$scene_space_battle_p_hit1$5   scene_space_battle_p_hit1
     000C5B59  GBVM$scene_space_battle_p_hit1$1   scene_space_battle_p_hit1
     000C5B84  GBVM$scene_space_battle_p_hit1$9   scene_space_battle_p_hit1
     000C5B9F  ___func_scene_space_battle_proje   scene_space_battle_projectil
     000C5B9F  _scene_space_battle_projectiles    scene_space_battle_projectil
     000C5BCD  ___func_scene_space_battle_sprit   scene_space_battle_sprites
     000C5BCD  _scene_space_battle_sprites        scene_space_battle_sprites
     000C5BDC  ___func_scene_space_battle_trigg   scene_space_battle_triggers
     000C5BDC  _scene_space_battle_triggers       scene_space_battle_triggers
     000C5BE4  ___func_scene_space_battle         scene_space_battle
ASxxxx Linker V03.00/V05.40 + sdld,  page 57.
Hexadecimal  [32-Bits]

Area                                    Addr        Size        Decimal Bytes (Attributes)
--------------------------------        ----        ----        ------- ----- ------------
_CODE_12                            000C4000    00003A8B =       14987. bytes (REL,CON)

      Value  Global                              Global Defined In Module
      -----  --------------------------------   ------------------------
     000C5BE4  _scene_space_battle                scene_space_battle
     000C5C1F  ___func_scene_title_screen         scene_title_screen
     000C5C1F  _scene_title_screen                scene_title_screen
     000C5C5A  _scene_top_house_init              scene_top_house_init
     000C5C5B  GBVM$scene_top_house_init$842b71   scene_top_house_init
     000C5C5F  GBVM$scene_top_house_init$3ad096   scene_top_house_init
     000C5C63  GBVM$scene_top_house_init$autofa   scene_top_house_init
     000C5C6F  ___func_scene_top_house_sprites    scene_top_house_sprites
     000C5C6F  _scene_top_house_sprites           scene_top_house_sprites
     000C5C78  ___func_scene_top_house_triggers   scene_top_house_triggers
     000C5C78  _scene_top_house_triggers          scene_top_house_triggers
     000C5C80  ___func_scene_top_house            scene_top_house
     000C5C80  _scene_top_house                   scene_top_house
     000C5CBB  _scene_underground_init            scene_underground_init
     000C5CBE  GBVM$scene_underground_init$b1d1   scene_underground_init
     000C5CC7  GBVM$scene_underground_init$a07c   scene_underground_init
     000C5CD4  GBVM$scene_underground_init$0a58   scene_underground_init
     000C5CDC  GBVM$scene_underground_init$02ae   scene_underground_init
     000C5CDC  GBVM_END$scene_underground_init$   scene_underground_init
     000C5CE0  GBVM$scene_underground_init$119d   scene_underground_init
     000C5CE4  GBVM$scene_underground_init$4434   scene_underground_init
     000C5CE4  GBVM$scene_underground_init$648d   scene_underground_init
     000C5CF0  GBVM$scene_underground_init$1b7f   scene_underground_init
     000C5D06  GBVM$scene_underground_init$auto   scene_underground_init
     000C5D06  GBVM_END$scene_underground_init$   scene_underground_init
     000C5D06  GBVM_END$scene_underground_init$   scene_underground_init
     000C5D12  ___func_scene_underground_sprite   scene_underground_sprites
     000C5D12  _scene_underground_sprites         scene_underground_sprites
     000C5D1E  ___func_scene_underground_trigge   scene_underground_triggers
     000C5D1E  _scene_underground_triggers        scene_underground_triggers
     000C5D2E  ___func_scene_underground          scene_underground
     000C5D2E  _scene_underground                 scene_underground
     000C5D69  _script_enemy_ship_destroy         script_enemy_ship_destroy
     000C5D6B  GBVM$script_enemy_ship_destroy$2   script_enemy_ship_destroy
     000C5D75  GBVM$script_enemy_ship_destroy$5   script_enemy_ship_destroy
     000C5D7D  GBVM$script_enemy_ship_destroy$6   script_enemy_ship_destroy
     000C5D83  GBVM$script_enemy_ship_destroy$d   script_enemy_ship_destroy
     000C5D92  GBVM$script_enemy_ship_destroy$4   script_enemy_ship_destroy
     000C5D9E  GBVM$script_enemy_ship_destroy$7   script_enemy_ship_destroy
     000C5DAA  _script_enemy_ship_hit_playe       script_enemy_ship_hit_playe
     000C5DAC  GBVM$script_enemy_ship_hit_playe   script_enemy_ship_hit_playe
     000C5DC5  GBVM$script_enemy_ship_hit_playe   script_enemy_ship_hit_playe
     000C5DCF  _script_engine_init                
     000C5E4F  GBVM$script_init_menu$078bea48_4   script_init_menu
     000C5E4F  _script_init_menu                  script_init_menu
     000C5E57  GBVM_END$script_init_menu$078bea   script_init_menu
     000C5E59  GBVM$script_init_weapons$72f90b5   script_init_weapons
     000C5E59  _script_init_weapons               script_init_weapons
     000C5E61  GBVM_END$script_init_weapons$72f   script_init_weapons
     000C5E63  _script_input_5                    script_input_5
     000C5E65  GBVM$script_input_5$b5d82058_ed8   script_input_5
ASxxxx Linker V03.00/V05.40 + sdld,  page 58.
Hexadecimal  [32-Bits]

Area                                    Addr        Size        Decimal Bytes (Attributes)
--------------------------------        ----        ----        ------- ----- ------------
_CODE_12                            000C4000    00003A8B =       14987. bytes (REL,CON)

      Value  Global                              Global Defined In Module
      -----  --------------------------------   ------------------------
     000C5E82  _script_input                      script_input
     000C5E84  GBVM$script_input$41c36cd9_f218_   script_input
     000C5E85  GBVM$script_input$dd21c899_25f7_   script_input
     000C5EB8  ___func_sound_legacy_0             sound_legacy_0
     000C5EB8  _sound_legacy_0                    sound_legacy_0
     000C5ECB  ___func_sprite_bullet_left_tiles   sprite_bullet_left_tileset
     000C5ECB  _sprite_bullet_left_tileset        sprite_bullet_left_tileset
     000C5F4D  ___func_sprite_bullet_left         sprite_bullet_left
     000C5F4D  _sprite_bullet_left_metasprite_0   sprite_bullet_left
     000C5F59  _sprite_bullet_left_metasprite_1   sprite_bullet_left
     000C5F65  _sprite_bullet_left_metasprites    sprite_bullet_left
     000C5F69  _sprite_bullet_left_animations     sprite_bullet_left
     000C5F79  _sprite_bullet_left_animations_l   sprite_bullet_left
     000C5F7B  _sprite_bullet_left                sprite_bullet_left
     000C5F8E  ___func_sprite_bullet_right_tile   sprite_bullet_right_tileset
     000C5F8E  _sprite_bullet_right_tileset       sprite_bullet_right_tileset
     000C6010  ___func_sprite_bullet_right        sprite_bullet_right
     000C6010  _sprite_bullet_right_metasprite_   sprite_bullet_right
     000C601C  _sprite_bullet_right_metasprite_   sprite_bullet_right
     000C6028  _sprite_bullet_right_metasprites   sprite_bullet_right
     000C602C  _sprite_bullet_right_animations    sprite_bullet_right
     000C603C  _sprite_bullet_right_animations_   sprite_bullet_right
     000C603E  _sprite_bullet_right               sprite_bullet_right
     000C6051  ___func_sprite_cat_tileset         sprite_cat_tileset
     000C6051  _sprite_cat_tileset                sprite_cat_tileset
     000C6093  ___func_sprite_cat                 sprite_cat
     000C6093  _sprite_cat_metasprite_0           sprite_cat
     000C609F  _sprite_cat_metasprites            sprite_cat
     000C60A1  _sprite_cat_animations             sprite_cat
     000C60B1  _sprite_cat_animations_lookup      sprite_cat
     000C60B3  _sprite_cat                        sprite_cat
     000C60C6  ___func_sprite_checkbox_tileset    sprite_checkbox_tileset
     000C60C6  _sprite_checkbox_tileset           sprite_checkbox_tileset
     000C6108  ___func_sprite_checkbox            sprite_checkbox
     000C6108  _sprite_checkbox_metasprite_0      sprite_checkbox
     000C6110  _sprite_checkbox_metasprite_1      sprite_checkbox
     000C6118  _sprite_checkbox_metasprites       sprite_checkbox
     000C611C  _sprite_checkbox_animations        sprite_checkbox
     000C612C  _sprite_checkbox_animations_look   sprite_checkbox
     000C612E  _sprite_checkbox                   sprite_checkbox
     000C6141  ___func_sprite_chest_tileset       sprite_chest_tileset
     000C6141  _sprite_chest_tileset              sprite_chest_tileset
     000C6183  ___func_sprite_chest               sprite_chest
     000C6183  _sprite_chest_metasprite_0         sprite_chest
     000C618F  _sprite_chest_metasprite_1         sprite_chest
     000C619B  _sprite_chest_metasprites          sprite_chest
     000C619F  _sprite_chest_animations           sprite_chest
     000C61BF  _sprite_chest_animations_lookup    sprite_chest
     000C61C5  _sprite_chest                      sprite_chest
     000C61D8  ___func_sprite_cursor_tileset      sprite_cursor_tileset
     000C61D8  _sprite_cursor_tileset             sprite_cursor_tileset
ASxxxx Linker V03.00/V05.40 + sdld,  page 59.
Hexadecimal  [32-Bits]

Area                                    Addr        Size        Decimal Bytes (Attributes)
--------------------------------        ----        ----        ------- ----- ------------
_CODE_12                            000C4000    00003A8B =       14987. bytes (REL,CON)

      Value  Global                              Global Defined In Module
      -----  --------------------------------   ------------------------
     000C625A  ___func_sprite_cursor              sprite_cursor
     000C625A  _sprite_cursor_metasprite_0        sprite_cursor
     000C6266  _sprite_cursor_metasprite_1        sprite_cursor
     000C6272  _sprite_cursor_metasprite_2        sprite_cursor
     000C627E  _sprite_cursor_metasprites         sprite_cursor
     000C6284  _sprite_cursor_animations          sprite_cursor
     000C6294  _sprite_cursor_animations_lookup   sprite_cursor
     000C6296  _sprite_cursor                     sprite_cursor
     000C62A9  ___func_sprite_dog_tileset         sprite_dog_tileset
     000C62A9  _sprite_dog_tileset                sprite_dog_tileset
     000C62EB  ___func_sprite_dog                 sprite_dog
     000C62EB  _sprite_dog_metasprite_0           sprite_dog
     000C62F7  _sprite_dog_metasprites            sprite_dog
     000C62F9  _sprite_dog_animations             sprite_dog
     000C6309  _sprite_dog_animations_lookup      sprite_dog
     000C630B  _sprite_dog                        sprite_dog
     000C631E  ___func_sprite_drumkit_tileset     sprite_drumkit_tileset
     000C631E  _sprite_drumkit_tileset            sprite_drumkit_tileset
     000C63A0  ___func_sprite_drumkit             sprite_drumkit
     000C63A0  _sprite_drumkit_metasprite_0       sprite_drumkit
     000C63B4  _sprite_drumkit_metasprites        sprite_drumkit
     000C63B6  _sprite_drumkit_animations         sprite_drumkit
     000C63C6  _sprite_drumkit_animations_looku   sprite_drumkit
     000C63C8  _sprite_drumkit                    sprite_drumkit
     000C63DB  ___func_sprite_duck_tileset        sprite_duck_tileset
     000C63DB  _sprite_duck_tileset               sprite_duck_tileset
     000C645D  ___func_sprite_duck                sprite_duck
     000C645D  _sprite_duck_metasprite_0          sprite_duck
     000C6469  _sprite_duck_metasprite_1          sprite_duck
     000C6475  _sprite_duck_metasprites           sprite_duck
     000C6479  _sprite_duck_animations            sprite_duck
     000C6489  _sprite_duck_animations_lookup     sprite_duck
     000C648B  _sprite_duck                       sprite_duck
     000C649E  ___func_sprite_enemy_ship          sprite_enemy_ship
     000C649E  _sprite_enemy_ship_metasprite_0    sprite_enemy_ship
     000C64AA  _sprite_enemy_ship_metasprite_1    sprite_enemy_ship
     000C64B6  _sprite_enemy_ship_metasprite_2    sprite_enemy_ship
     000C64C2  _sprite_enemy_ship_metasprite_3    sprite_enemy_ship
     000C64CE  _sprite_enemy_ship_metasprite_4    sprite_enemy_ship
     000C64DA  _sprite_enemy_ship_metasprite_5    sprite_enemy_ship
     000C64E6  _sprite_enemy_ship_metasprites     sprite_enemy_ship
     000C64F2  _sprite_enemy_ship_animations      sprite_enemy_ship
     000C6512  _sprite_enemy_ship_animations_lo   sprite_enemy_ship
     000C6516  _sprite_enemy_ship                 sprite_enemy_ship
     000C6529  ___func_sprite_hidden_stairs_til   sprite_hidden_stairs_tileset
     000C6529  _sprite_hidden_stairs_tileset      sprite_hidden_stairs_tileset
     000C654B  ___func_sprite_hidden_stairs       sprite_hidden_stairs
     000C654B  _sprite_hidden_stairs_metasprite   sprite_hidden_stairs
     000C6557  _sprite_hidden_stairs_metasprite   sprite_hidden_stairs
     000C6559  _sprite_hidden_stairs_animations   sprite_hidden_stairs
     000C6569  _sprite_hidden_stairs_animations   sprite_hidden_stairs
ASxxxx Linker V03.00/V05.40 + sdld,  page 60.
Hexadecimal  [32-Bits]

Area                                    Addr        Size        Decimal Bytes (Attributes)
--------------------------------        ----        ----        ------- ----- ------------
_CODE_12                            000C4000    00003A8B =       14987. bytes (REL,CON)

      Value  Global                              Global Defined In Module
      -----  --------------------------------   ------------------------
     000C656B  _sprite_hidden_stairs              sprite_hidden_stairs
     000C657E  ___func_sprite_ice_tileset         sprite_ice_tileset
     000C657E  _sprite_ice_tileset                sprite_ice_tileset
     000C65C0  ___func_sprite_ice                 sprite_ice
     000C65C0  _sprite_ice_metasprite_0           sprite_ice
     000C65CC  _sprite_ice_metasprites            sprite_ice
     000C65CE  _sprite_ice_animations             sprite_ice
     000C65DE  _sprite_ice_animations_lookup      sprite_ice
     000C65E0  _sprite_ice                        sprite_ice
     000C65F3  ___func_sprite_keyboard_tileset    sprite_keyboard_tileset
     000C65F3  _sprite_keyboard_tileset           sprite_keyboard_tileset
     000C6675  ___func_sprite_keyboard            sprite_keyboard
     000C6675  _sprite_keyboard_metasprite_0      sprite_keyboard
     000C6689  _sprite_keyboard_metasprites       sprite_keyboard
     000C668B  _sprite_keyboard_animations        sprite_keyboard
     000C669B  _sprite_keyboard_animations_look   sprite_keyboard
     000C669D  _sprite_keyboard                   sprite_keyboard
     000C66B0  ___func_sprite_machine_tileset     sprite_machine_tileset
     000C66B0  _sprite_machine_tileset            sprite_machine_tileset
     000C6732  ___func_sprite_machine             sprite_machine
     000C6732  _sprite_machine_metasprite_0       sprite_machine
     000C673E  _sprite_machine_metasprite_1       sprite_machine
     000C674A  _sprite_machine_metasprites        sprite_machine
     000C674E  _sprite_machine_animations         sprite_machine
     000C675E  _sprite_machine_animations_looku   sprite_machine
     000C6760  _sprite_machine                    sprite_machine
     000C6773  ___func_sprite_npc_gardener_tile   sprite_npc_gardener_tileset
     000C6773  _sprite_npc_gardener_tileset       sprite_npc_gardener_tileset
     000C67F5  ___func_sprite_npc_gardener        sprite_npc_gardener
     000C67F5  _sprite_npc_gardener_metasprite_   sprite_npc_gardener
     000C6809  _sprite_npc_gardener_metasprite_   sprite_npc_gardener
     000C681D  _sprite_npc_gardener_metasprites   sprite_npc_gardener
     000C6821  _sprite_npc_gardener_animations    sprite_npc_gardener
     000C6831  _sprite_npc_gardener_animations_   sprite_npc_gardener
     000C6833  _sprite_npc_gardener               sprite_npc_gardener
     000C6846  ___func_sprite_npc001              sprite_npc001
     000C6846  _sprite_npc001_metasprite_0        sprite_npc001
     000C6852  _sprite_npc001_metasprite_1        sprite_npc001
     000C685E  _sprite_npc001_metasprite_2        sprite_npc001
     000C686A  _sprite_npc001_metasprite_3        sprite_npc001
     000C6876  _sprite_npc001_metasprites         sprite_npc001
     000C687E  _sprite_npc001_animations          sprite_npc001
     000C688E  _sprite_npc001_animations_lookup   sprite_npc001
     000C6890  _sprite_npc001                     sprite_npc001
     000C68A3  ___func_sprite_npc002              sprite_npc002
     000C68A3  _sprite_npc002_metasprite_0        sprite_npc002
     000C68AF  _sprite_npc002_metasprite_1        sprite_npc002
     000C68BB  _sprite_npc002_metasprite_2        sprite_npc002
     000C68C7  _sprite_npc002_metasprite_3        sprite_npc002
     000C68D3  _sprite_npc002_metasprites         sprite_npc002
     000C68DB  _sprite_npc002_animations          sprite_npc002
ASxxxx Linker V03.00/V05.40 + sdld,  page 61.
Hexadecimal  [32-Bits]

Area                                    Addr        Size        Decimal Bytes (Attributes)
--------------------------------        ----        ----        ------- ----- ------------
_CODE_12                            000C4000    00003A8B =       14987. bytes (REL,CON)

      Value  Global                              Global Defined In Module
      -----  --------------------------------   ------------------------
     000C68EB  _sprite_npc002_animations_lookup   sprite_npc002
     000C68ED  _sprite_npc002                     sprite_npc002
     000C6900  ___func_sprite_npc007              sprite_npc007
     000C6900  _sprite_npc007_metasprite_0        sprite_npc007
     000C690C  _sprite_npc007_metasprite_1        sprite_npc007
     000C6918  _sprite_npc007_metasprite_2        sprite_npc007
     000C6924  _sprite_npc007_metasprite_3        sprite_npc007
     000C6930  _sprite_npc007_metasprites         sprite_npc007
     000C6938  _sprite_npc007_animations          sprite_npc007
     000C6948  _sprite_npc007_animations_lookup   sprite_npc007
     000C694A  _sprite_npc007                     sprite_npc007
     000C695D  ___func_sprite_npc008              sprite_npc008
     000C695D  _sprite_npc008_metasprite_0        sprite_npc008
     000C6969  _sprite_npc008_metasprite_1        sprite_npc008
     000C6975  _sprite_npc008_metasprites         sprite_npc008
     000C6979  _sprite_npc008_animations          sprite_npc008
     000C6989  _sprite_npc008_animations_lookup   sprite_npc008
     000C698B  _sprite_npc008                     sprite_npc008
     000C699E  ___func_sprite_pod_door            sprite_pod_door
     000C699E  _sprite_pod_door_metasprite_0      sprite_pod_door
     000C69AA  _sprite_pod_door_metasprite_1      sprite_pod_door
     000C69B6  _sprite_pod_door_metasprite_2      sprite_pod_door
     000C69C2  _sprite_pod_door_metasprites       sprite_pod_door
     000C69C8  _sprite_pod_door_animations        sprite_pod_door
     000C69D8  _sprite_pod_door_animations_look   sprite_pod_door
     000C69DA  _sprite_pod_door                   sprite_pod_door
     000C69ED  ___func_sprite_portal              sprite_portal
     000C69ED  _sprite_portal_metasprite_0        sprite_portal
     000C69F9  _sprite_portal_metasprite_1        sprite_portal
     000C6A05  _sprite_portal_metasprite_2        sprite_portal
     000C6A11  _sprite_portal_metasprites         sprite_portal
     000C6A17  _sprite_portal_animations          sprite_portal
     000C6A27  _sprite_portal_animations_lookup   sprite_portal
     000C6A29  _sprite_portal                     sprite_portal
     000C6A3C  ___func_sprite_radio_tileset       sprite_radio_tileset
     000C6A3C  _sprite_radio_tileset              sprite_radio_tileset
     000C6A7E  ___func_sprite_radio               sprite_radio
     000C6A7E  _sprite_radio_metasprite_0         sprite_radio
     000C6A8A  _sprite_radio_metasprites          sprite_radio
     000C6A8C  _sprite_radio_animations           sprite_radio
     000C6A9C  _sprite_radio_animations_lookup    sprite_radio
     000C6A9E  _sprite_radio                      sprite_radio
     000C6AB1  ___func_sprite_rock_tileset        sprite_rock_tileset
     000C6AB1  _sprite_rock_tileset               sprite_rock_tileset
     000C6AF3  ___func_sprite_rock                sprite_rock
     000C6AF3  _sprite_rock_metasprite_0          sprite_rock
     000C6AFF  _sprite_rock_metasprites           sprite_rock
     000C6B01  _sprite_rock_animations            sprite_rock
     000C6B11  _sprite_rock_animations_lookup     sprite_rock
     000C6B13  _sprite_rock                       sprite_rock
     000C6B26  ___func_sprite_sage_tileset        sprite_sage_tileset
ASxxxx Linker V03.00/V05.40 + sdld,  page 62.
Hexadecimal  [32-Bits]

Area                                    Addr        Size        Decimal Bytes (Attributes)
--------------------------------        ----        ----        ------- ----- ------------
_CODE_12                            000C4000    00003A8B =       14987. bytes (REL,CON)

      Value  Global                              Global Defined In Module
      -----  --------------------------------   ------------------------
     000C6B26  _sprite_sage_tileset               sprite_sage_tileset
     000C6B68  ___func_sprite_sage                sprite_sage
     000C6B68  _sprite_sage_metasprite_0          sprite_sage
     000C6B74  _sprite_sage_metasprites           sprite_sage
     000C6B76  _sprite_sage_animations            sprite_sage
     000C6B86  _sprite_sage_animations_lookup     sprite_sage
     000C6B88  _sprite_sage                       sprite_sage
     000C6B9B  ___func_sprite_savepoint_tileset   sprite_savepoint_tileset
     000C6B9B  _sprite_savepoint_tileset          sprite_savepoint_tileset
     000C6BDD  ___func_sprite_savepoint           sprite_savepoint
     000C6BDD  _sprite_savepoint_metasprite_0     sprite_savepoint
     000C6BE9  _sprite_savepoint_metasprite_1     sprite_savepoint
     000C6BF5  _sprite_savepoint_metasprites      sprite_savepoint
     000C6BF9  _sprite_savepoint_animations       sprite_savepoint
     000C6C09  _sprite_savepoint_animations_loo   sprite_savepoint
     000C6C0B  _sprite_savepoint                  sprite_savepoint
     000C6C1E  ___func_sprite_signpost_tileset    sprite_signpost_tileset
     000C6C1E  _sprite_signpost_tileset           sprite_signpost_tileset
     000C6C60  ___func_sprite_signpost            sprite_signpost
     000C6C60  _sprite_signpost_metasprite_0      sprite_signpost
     000C6C6C  _sprite_signpost_metasprites       sprite_signpost
     000C6C6E  _sprite_signpost_animations        sprite_signpost
     000C6C7E  _sprite_signpost_animations_look   sprite_signpost
     000C6C80  _sprite_signpost                   sprite_signpost
     000C6C93  ___func_sprite_space_mine          sprite_space_mine
     000C6C93  _sprite_space_mine_metasprite_0    sprite_space_mine
     000C6C9F  _sprite_space_mine_metasprite_1    sprite_space_mine
     000C6CAB  _sprite_space_mine_metasprite_2    sprite_space_mine
     000C6CB7  _sprite_space_mine_metasprite_3    sprite_space_mine
     000C6CC3  _sprite_space_mine_metasprite_4    sprite_space_mine
     000C6CCF  _sprite_space_mine_metasprite_5    sprite_space_mine
     000C6CDB  _sprite_space_mine_metasprites     sprite_space_mine
     000C6CE7  _sprite_space_mine_animations      sprite_space_mine
     000C6D07  _sprite_space_mine_animations_lo   sprite_space_mine
     000C6D0B  _sprite_space_mine                 sprite_space_mine
     000C6D1E  ___func_sprite_torch_tileset       sprite_torch_tileset
     000C6D1E  _sprite_torch_tileset              sprite_torch_tileset
     000C6D60  ___func_sprite_torch               sprite_torch
     000C6D60  _sprite_torch_metasprite_0         sprite_torch
     000C6D6C  _sprite_torch_metasprites          sprite_torch
     000C6D6E  _sprite_torch_animations           sprite_torch
     000C6D7E  _sprite_torch_animations_lookup    sprite_torch
     000C6D80  _sprite_torch                      sprite_torch
     000C6D93  ___func_sprite_turnip              sprite_turnip
     000C6D93  _sprite_turnip_metasprite_0        sprite_turnip
     000C6D9F  _sprite_turnip_metasprite_1        sprite_turnip
     000C6DAB  _sprite_turnip_metasprite_2        sprite_turnip
     000C6DB7  _sprite_turnip_metasprites         sprite_turnip
     000C6DBD  _sprite_turnip_animations          sprite_turnip
     000C6DDD  _sprite_turnip_animations_lookup   sprite_turnip
     000C6DE1  _sprite_turnip                     sprite_turnip
ASxxxx Linker V03.00/V05.40 + sdld,  page 63.
Hexadecimal  [32-Bits]

Area                                    Addr        Size        Decimal Bytes (Attributes)
--------------------------------        ----        ----        ------- ----- ------------
_CODE_12                            000C4000    00003A8B =       14987. bytes (REL,CON)

      Value  Global                              Global Defined In Module
      -----  --------------------------------   ------------------------
     000C6DF4  ___func_sprite_ui_weapon_tileset   sprite_ui_weapon_tileset
     000C6DF4  _sprite_ui_weapon_tileset          sprite_ui_weapon_tileset
     000C6E36  ___func_sprite_ui_weapon           sprite_ui_weapon
     000C6E36  _sprite_ui_weapon_metasprite_0     sprite_ui_weapon
     000C6E42  _sprite_ui_weapon_metasprites      sprite_ui_weapon
     000C6E44  _sprite_ui_weapon_animations       sprite_ui_weapon
     000C6E54  _sprite_ui_weapon_animations_loo   sprite_ui_weapon
     000C6E56  _sprite_ui_weapon                  sprite_ui_weapon
     000C6E69  _spritesheet_none_metasprite       spritesheet_none
     000C6E6D  _spritesheet_none_metasprites      spritesheet_none
     000C6E6F  _spritesheet_none                  spritesheet_none
     000C6E82  ___func_tileset_default_frame      tileset_default_frame
     000C6E82  _tileset_default_frame             tileset_default_frame
     000C6F14  ___func_tileset_flowers            tileset_flowers
     000C6F14  _tileset_flowers                   tileset_flowers
     000C6F56  ___func_tileset_waterfall          tileset_waterfall
     000C6F56  _tileset_waterfall                 tileset_waterfall
     000C6FD8  _trigger_0_interact                trigger_0_interact
     000C6FDB  GBVM$trigger_0_interact$0e4b8403   trigger_0_interact
     000C700E  _trigger_1_interact                trigger_1_interact
     000C7011  GBVM$trigger_1_interact$6b1f21b9   trigger_1_interact
     000C7044  _trigger_12_interact               trigger_12_interact
     000C7047  GBVM$trigger_12_interact$1997bb1   trigger_12_interact
     000C7053  GBVM$trigger_12_interact$f6dfc32   trigger_12_interact
     000C707E  GBVM$trigger_12_interact$0b3e9e7   trigger_12_interact
     000C7087  GBVM$trigger_12_interact$1a2e750   trigger_12_interact
     000C7092  GBVM$trigger_12_interact$c2ae553   trigger_12_interact
     000C70B5  GBVM$trigger_12_interact$8874972   trigger_12_interact
     000C70D8  GBVM_END$trigger_12_interact$199   trigger_12_interact
     000C70D8  GBVM_END$trigger_12_interact$f6d   trigger_12_interact
     000C70D9  _trigger_14_interact               trigger_14_interact
     000C70DC  GBVM$trigger_14_interact$343caad   trigger_14_interact
     000C710F  _trigger_15_interact               trigger_15_interact
     000C7112  GBVM$trigger_15_interact$f985ad6   trigger_15_interact
     000C7145  _trigger_16_interact               trigger_16_interact
     000C7148  GBVM$trigger_16_interact$6f0aa60   trigger_16_interact
     000C717B  _trigger_17_interact               trigger_17_interact
     000C717E  GBVM$trigger_17_interact$ba8e33a   trigger_17_interact
     000C718A  GBVM$trigger_17_interact$65fa19e   trigger_17_interact
     000C71BC  GBVM_END$trigger_17_interact$ba8   trigger_17_interact
     000C71BD  _trigger_18_interact               trigger_18_interact
     000C71C0  GBVM$trigger_18_interact$ea30eed   trigger_18_interact
     000C71F3  _trigger_19_interact               trigger_19_interact
     000C71F4  GBVM$trigger_19_interact$cfafe4c   trigger_19_interact
     000C7234  _trigger_2_interact                trigger_2_interact
     000C7237  GBVM$trigger_2_interact$e5c482c4   trigger_2_interact
     000C726A  _trigger_20_interact               trigger_20_interact
     000C726B  GBVM$trigger_20_interact$4f2a19c   trigger_20_interact
     000C72A8  _trigger_21_interact               trigger_21_interact
     000C72A9  GBVM$trigger_21_interact$ddde47b   trigger_21_interact
     000C72DB  _trigger_22_interact               trigger_22_interact
ASxxxx Linker V03.00/V05.40 + sdld,  page 64.
Hexadecimal  [32-Bits]

Area                                    Addr        Size        Decimal Bytes (Attributes)
--------------------------------        ----        ----        ------- ----- ------------
_CODE_12                            000C4000    00003A8B =       14987. bytes (REL,CON)

      Value  Global                              Global Defined In Module
      -----  --------------------------------   ------------------------
     000C72DC  GBVM$trigger_22_interact$df8dd21   trigger_22_interact
     000C7307  GBVM$trigger_22_interact$63e9130   trigger_22_interact
     000C734A  _trigger_23_interact               trigger_23_interact
     000C734B  GBVM$trigger_23_interact$e8f54e0   trigger_23_interact
     000C7391  _trigger_24_interact               trigger_24_interact
     000C7392  GBVM$trigger_24_interact$172f2ea   trigger_24_interact
     000C73C2  _trigger_25_interact               trigger_25_interact
     000C73C3  GBVM$trigger_25_interact$a2549f5   trigger_25_interact
     000C7402  _trigger_26_interact               trigger_26_interact
     000C7403  GBVM$trigger_26_interact$01348c9   trigger_26_interact
     000C7438  _trigger_27_interact               trigger_27_interact
     000C7439  GBVM$trigger_27_interact$a939818   trigger_27_interact
     000C7473  _trigger_28_interact               trigger_28_interact
     000C7474  GBVM$trigger_28_interact$94dd6cc   trigger_28_interact
     000C74B5  _trigger_29_interact               trigger_29_interact
     000C74B8  GBVM$trigger_29_interact$c44125d   trigger_29_interact
     000C74EB  _trigger_3_interact                trigger_3_interact
     000C74EE  GBVM$trigger_3_interact$24c4a3f7   trigger_3_interact
     000C7521  _trigger_30_interact               trigger_30_interact
     000C7524  GBVM$trigger_30_interact$4051f7e   trigger_30_interact
     000C753A  GBVM$trigger_30_interact$a37c47f   trigger_30_interact
     000C7554  _trigger_31_interact               trigger_31_interact
     000C7557  GBVM$trigger_31_interact$e07e7b7   trigger_31_interact
     000C7563  GBVM$trigger_31_interact$b4de53c   trigger_31_interact
     000C7568  GBVM$trigger_31_interact$f42318e   trigger_31_interact
     000C7571  GBVM$trigger_31_interact$55fe90a   trigger_31_interact
     000C757C  GBVM$trigger_31_interact$e9ddb89   trigger_31_interact
     000C75C3  GBVM_END$trigger_31_interact$e07   trigger_31_interact
     000C75C4  _trigger_32_interact               trigger_32_interact
     000C75C7  GBVM$trigger_32_interact$c698e36   trigger_32_interact
     000C75DD  GBVM$trigger_32_interact$56f6872   trigger_32_interact
     000C75F7  _trigger_33_interact               trigger_33_interact
     000C75FA  GBVM$trigger_33_interact$238eb0b   trigger_33_interact
     000C761D  GBVM$trigger_33_interact$6694625   trigger_33_interact
     000C7650  _trigger_34_interact               trigger_34_interact
     000C7653  GBVM$trigger_34_interact$7b6fa8e   trigger_34_interact
     000C7670  GBVM$trigger_34_interact$6f61391   trigger_34_interact
     000C7679  GBVM$trigger_34_interact$336fac8   trigger_34_interact
     000C7685  GBVM$trigger_34_interact$3336a69   trigger_34_interact
     000C76B7  GBVM_END$trigger_34_interact$7b6   trigger_34_interact
     000C76B8  _trigger_35_interact               trigger_35_interact
     000C76BB  GBVM$trigger_35_interact$ec7fa93   trigger_35_interact
     000C76EE  _trigger_36_interact               trigger_36_interact
     000C76F1  GBVM$trigger_36_interact$0576f37   trigger_36_interact
     000C7724  _trigger_37_interact               trigger_37_interact
     000C7727  GBVM$trigger_37_interact$302de01   trigger_37_interact
     000C775A  _trigger_39_interact               trigger_39_interact
     000C775D  GBVM$trigger_39_interact$d3d016f   trigger_39_interact
     000C7790  _trigger_4_interact                trigger_4_interact
     000C7793  GBVM$trigger_4_interact$e666b93b   trigger_4_interact
     000C77A8  GBVM$trigger_4_interact$c1b86b13   trigger_4_interact
ASxxxx Linker V03.00/V05.40 + sdld,  page 65.
Hexadecimal  [32-Bits]

Area                                    Addr        Size        Decimal Bytes (Attributes)
--------------------------------        ----        ----        ------- ----- ------------
_CODE_12                            000C4000    00003A8B =       14987. bytes (REL,CON)

      Value  Global                              Global Defined In Module
      -----  --------------------------------   ------------------------
     000C77B0  GBVM$trigger_4_interact$45eb456d   trigger_4_interact
     000C77B0  GBVM_END$trigger_4_interact$e666   trigger_4_interact
     000C7803  GBVM$trigger_4_interact$cec5ef40   trigger_4_interact
     000C780C  _trigger_40_interact               trigger_40_interact
     000C780F  GBVM$trigger_40_interact$9520c8d   trigger_40_interact
     000C7842  _trigger_41_interact               trigger_41_interact
     000C7845  GBVM$trigger_41_interact$67b4ffd   trigger_41_interact
     000C7878  _trigger_5_interact                trigger_5_interact
     000C787B  GBVM$trigger_5_interact$6e78543f   trigger_5_interact
     000C7890  GBVM$trigger_5_interact$b089a337   trigger_5_interact
     000C7898  GBVM$trigger_5_interact$6e1a0642   trigger_5_interact
     000C7898  GBVM_END$trigger_5_interact$6e78   trigger_5_interact
     000C78EB  GBVM$trigger_5_interact$fae1c8d4   trigger_5_interact
     000C78F4  _trigger_6_interact                trigger_6_interact
     000C78F7  GBVM$trigger_6_interact$cd6339f7   trigger_6_interact
     000C792A  _trigger_7_interact                trigger_7_interact
     000C792D  GBVM$trigger_7_interact$c3d7fe25   trigger_7_interact
     000C795B  GBVM$trigger_7_interact$41d62a66   trigger_7_interact
     000C79AF  _trigger_8_interact                trigger_8_interact
     000C79B2  GBVM$trigger_8_interact$d0fcf74a   trigger_8_interact
     000C79E5  _trigger_9_interact                trigger_9_interact
     000C79E8  GBVM$trigger_9_interact$53a22ae2   trigger_9_interact
     000C79F4  GBVM$trigger_9_interact$87a442e0   trigger_9_interact
     000C7A1F  GBVM$trigger_9_interact$c1375dbc   trigger_9_interact
     000C7A28  GBVM$trigger_9_interact$29f5de3c   trigger_9_interact
     000C7A33  GBVM$trigger_9_interact$0d4eb13d   trigger_9_interact
     000C7A56  GBVM$trigger_9_interact$74df3598   trigger_9_interact
     000C7A79  GBVM_END$trigger_9_interact$53a2   trigger_9_interact
     000C7A79  GBVM_END$trigger_9_interact$87a4   trigger_9_interact
     000C7A7A  _logo_init                         logo
     000C7A8A  _logo_update                       logo
ASxxxx Linker V03.00/V05.40 + sdld,  page 66.
Hexadecimal  [32-Bits]

Area                                    Addr        Size        Decimal Bytes (Attributes)
--------------------------------        ----        ----        ------- ----- ------------
_CODE_9                             00094000    00003FFD =       16381. bytes (REL,CON)

      Value  Global                              Global Defined In Module
      -----  --------------------------------   ------------------------
     00094000  _core_reset                        core
     00094075  _process_VM                        core
     000942F3  _core_run                          core
     000943CF  ___HandleCrash_banked              
     00094737  _printer_send_receive              gbprinter
     0009476D  _printer_send_byte                 gbprinter
     00094780  _printer_send_command              gbprinter
     000947A3  _printer_print_tile                gbprinter
     00094834  _printer_wait                      gbprinter
     00094866  _gbprinter_detect                  gbprinter
     00094880  _gbprinter_print_overlay           gbprinter
     00094A4D  _data_init                         load_save
     00094A98  _save_points                       load_save
     00094AF8  _data_slot_address                 load_save
     00094B70  _data_save                         load_save
     00094C31  _data_load                         load_save
     00094D45  _data_clear                        load_save
     00094D72  _data_peek                         load_save
     00094E13  _atan2                             math_atan2
     00094FAC  _atan2_table                       math_atan2
     00095114  _set_sgb_border                    sgb_border
     000952FE  _trigger_reset                     trigger
     0009530E  _trigger_interact                  trigger
     0009534D  _trigger_activate_at               trigger
     00095398  _trigger_at_intersection           trigger
     000954BF  _trigger_activate_at_intersectio   trigger
     00095600  _trigger_at_tile                   trigger
     00095691  ___func_VM_CAMERA                  vm_camera
     00095691  _vm_camera_move_to                 vm_camera
     000958E4  _vm_camera_set_pos                 vm_camera
     0009592B  _camera_shake_frames               vm_camera
     00095A5A  ___func_VM_SIO                     vm_sio
     00095A5A  _vm_sio_set_mode                   vm_sio
     00095A6C  _vm_sio_exchange                   vm_sio
     00095D4E  _actor_19_interact                 actor_19_interact
     00095D4F  GBVM$actor_19_interact$2490432a_   actor_19_interact
     00095D58  GBVM$actor_19_interact$31d154ee_   actor_19_interact
     00095D59  GBVM$actor_19_interact$d23cd218_   actor_19_interact
     00095D5E  GBVM$actor_19_interact$8b5551d0_   actor_19_interact
     00095D66  GBVM$actor_19_interact$c56f5ddc_   actor_19_interact
     00095D6A  GBVM$actor_19_interact$b32af78a_   actor_19_interact
     00095D6F  GBVM$actor_19_interact$dd32bcb9_   actor_19_interact
     00095D74  GBVM_END$actor_19_interact$24904   actor_19_interact
     00095D75  ___func_bg_hidden_cave_tilemap_a   bg_hidden_cave_tilemap_attr
     00095D75  _bg_hidden_cave_tilemap_attr       bg_hidden_cave_tilemap_attr
     00095FB5  ___func_bg_leaving_earth_tileset   bg_leaving_earth_tileset
     00095FB5  _bg_leaving_earth_tileset          bg_leaving_earth_tileset
     00096277  ___func_bg_menu_page1_tileset      bg_menu_page1_tileset
     00096277  _bg_menu_page1_tileset             bg_menu_page1_tileset
     000964B9  ___func_bg_platform_path_tileset   bg_platform_path_tileset
ASxxxx Linker V03.00/V05.40 + sdld,  page 67.
Hexadecimal  [32-Bits]

Area                                    Addr        Size        Decimal Bytes (Attributes)
--------------------------------        ----        ----        ------- ----- ------------
_CODE_9                             00094000    00003FFD =       16381. bytes (REL,CON)

      Value  Global                              Global Defined In Module
      -----  --------------------------------   ------------------------
     000964B9  _bg_platform_path_tileset          bg_platform_path_tileset
     0009689B  ___func_scene_deep_space_collisi   scene_deep_space_collisions
     0009689B  _scene_deep_space_collisions       scene_deep_space_collisions
     00096C9B  ___func_scene_space_battle_actor   scene_space_battle_actors
     00096C9B  _scene_space_battle_actors         scene_space_battle_actors
     00096FDB  ___func_scene_underground_collis   scene_underground_collisions
     00096FDB  _scene_underground_collisions      scene_underground_collisions
     000973DB  ___func_sound_gbstudio_sfx_sav_0   sound_gbstudio_sfx_sav
     000973DB  ___func_sound_gbstudio_sfx_sav_0   sound_gbstudio_sfx_sav
     000973DB  ___func_sound_gbstudio_sfx_sav_0   sound_gbstudio_sfx_sav
     000973DB  ___func_sound_gbstudio_sfx_sav_0   sound_gbstudio_sfx_sav
     000973DB  ___func_sound_gbstudio_sfx_sav_0   sound_gbstudio_sfx_sav
     000973DB  ___func_sound_gbstudio_sfx_sav_0   sound_gbstudio_sfx_sav
     000973DB  ___func_sound_gbstudio_sfx_sav_0   sound_gbstudio_sfx_sav
     000973DB  ___func_sound_gbstudio_sfx_sav_0   sound_gbstudio_sfx_sav
     000973DB  ___func_sound_gbstudio_sfx_sav_0   sound_gbstudio_sfx_sav
     000973DB  ___func_sound_gbstudio_sfx_sav_0   sound_gbstudio_sfx_sav
     000973DB  _sound_gbstudio_sfx_sav_00         sound_gbstudio_sfx_sav
     00097460  _sound_gbstudio_sfx_sav_01         sound_gbstudio_sfx_sav
     000974B5  _sound_gbstudio_sfx_sav_02         sound_gbstudio_sfx_sav
     000974EC  _sound_gbstudio_sfx_sav_03         sound_gbstudio_sfx_sav
     0009751B  _sound_gbstudio_sfx_sav_04         sound_gbstudio_sfx_sav
     0009757D  _sound_gbstudio_sfx_sav_05         sound_gbstudio_sfx_sav
     000975EC  _sound_gbstudio_sfx_sav_06         sound_gbstudio_sfx_sav
     00097649  _sound_gbstudio_sfx_sav_07         sound_gbstudio_sfx_sav
     0009767F  _sound_gbstudio_sfx_sav_08         sound_gbstudio_sfx_sav
     000976D2  _sound_gbstudio_sfx_sav_09         sound_gbstudio_sfx_sav
     00097734  ___func_sprite_elephant_tileset    sprite_elephant_tileset
     00097734  _sprite_elephant_tileset           sprite_elephant_tileset
     00097A36  ___func_sprite_elephant            sprite_elephant
     00097A36  _sprite_elephant_metasprite_0      sprite_elephant
     00097A82  _sprite_elephant_metasprite_1      sprite_elephant
     00097ACE  _sprite_elephant_metasprite_2      sprite_elephant
     00097B1A  _sprite_elephant_metasprite_3      sprite_elephant
     00097B66  _sprite_elephant_metasprite_4      sprite_elephant
     00097BB2  _sprite_elephant_metasprite_5      sprite_elephant
     00097BFE  _sprite_elephant_metasprite_6      sprite_elephant
     00097C4A  _sprite_elephant_metasprites       sprite_elephant
     00097C58  _sprite_elephant_animations        sprite_elephant
     00097C68  _sprite_elephant_animations_look   sprite_elephant
     00097C6A  _sprite_elephant                   sprite_elephant
     00097C7D  _pointnclick_init                  pointnclick
     00097CB6  _pointnclick_update                pointnclick
ASxxxx Linker V03.00/V05.40 + sdld,  page 68.
Hexadecimal  [32-Bits]

Area                                    Addr        Size        Decimal Bytes (Attributes)
--------------------------------        ----        ----        ------- ----- ------------
_CRASH_HEADER0                      00000000    00000005 =           5. bytes (ABS,CON)

      Value  Global                              Global Defined In Module
      -----  --------------------------------   ------------------------
ASxxxx Linker V03.00/V05.40 + sdld,  page 69.
Hexadecimal  [32-Bits]

Area                                    Addr        Size        Decimal Bytes (Attributes)
--------------------------------        ----        ----        ------- ----- ------------
_CRASH_HEADER1                      00000000    00000004 =           4. bytes (ABS,CON)

      Value  Global                              Global Defined In Module
      -----  --------------------------------   ------------------------
ASxxxx Linker V03.00/V05.40 + sdld,  page 70.
Hexadecimal  [32-Bits]

Area                                    Addr        Size        Decimal Bytes (Attributes)
--------------------------------        ----        ----        ------- ----- ------------
_CRASH_SCRATCH2                     00000000    000001CB =         459. bytes (ABS,CON)

      Value  Global                              Global Defined In Module
      -----  --------------------------------   ------------------------
ASxxxx Linker V03.00/V05.40 + sdld,  page 71.
Hexadecimal  [32-Bits]

Area                                    Addr        Size        Decimal Bytes (Attributes)
--------------------------------        ----        ----        ------- ----- ------------
_CODE_7                             00074000    00004000 =       16384. bytes (REL,CON)

      Value  Global                              Global Defined In Module
      -----  --------------------------------   ------------------------
     00074000  _load_init                         data_manager
     00074013  _spritesheet_none_far              data_manager
     00074016  _load_bkg_tileset                  data_manager
     000740F3  _load_background                   data_manager
     000741B9  _load_sprite                       data_manager
     0007428F  _load_bounds                       data_manager
     000742AC  _do_load_palette                   data_manager
     00074331  _load_scene                        data_manager
     00074997  _load_player                       data_manager
     000749E0  _load_emote                        data_manager
     000749F9  _projectiles_init                  projectiles
     00074A28  _projectile_launch                 projectiles
     00074E22  _actor_10_interact                 actor_10_interact
     00074E35  GBVM$actor_10_interact$2ab3eea3_   actor_10_interact
     00074E4E  GBVM$actor_10_interact$31f9ba45_   actor_10_interact
     00074E57  ___func_bg_room_tileset            bg_room_tileset
     00074E57  _bg_room_tileset                   bg_room_tileset
     00076270  _song_rulz_intro_0_Data            song_rulz_intro_0_Data
     00076D5C  _song_rulz_outside_0_Data          song_rulz_outside_0_Data
     00077848  _song_rulz_spaceemergency_0_Data   song_rulz_spaceemergency_0_D
     0007785D  _shmup_init                        shmup
     000778FA  _shmup_update                      shmup

ASxxxx Linker V03.00/V05.40 + sdld,  page 72.
Hexadecimal  [32-Bits]

Area                                    Addr        Size        Decimal Bytes (Attributes)
--------------------------------        ----        ----        ------- ----- ------------
_CODE_4                             00044000    00004000 =       16384. bytes (REL,CON)

      Value  Global                              Global Defined In Module
      -----  --------------------------------   ------------------------
     00044000  _CGBFadeToWhiteStep                fade_manager
     00044039  _CGBFadeToBlackStep                fade_manager
     00044074  _ApplyPaletteChangeColor           fade_manager
     000440B1  _fade_speeds                       fade_manager
     000440B8  _DMGFadeToWhiteStep                fade_manager
     000440D9  _DMGFadeToBlackStep                fade_manager
     000440FC  _ApplyPaletteChangeDMG             fade_manager
     00044152  _fade_init                         fade_manager
     00044173  _fade_in                           fade_manager
     000441AB  _fade_out                          fade_manager
     000441E4  _fade_update                       fade_manager
     00044237  _fade_applypalettechange           fade_manager
     00044249  _fade_setspeed                     fade_manager
     00044259  _fade_in_modal                     fade_manager
     00044273  _fade_out_modal                    fade_manager
     0004428D  ___func_VM_MAIN                    vm
     0004428D  _vm_call                           vm
     000442CF  _vm_ret                            vm
     0004432F  _vm_call_far                       vm
     000443AE  _vm_ret_far                        vm
     00044426  _vm_push                           vm
     00044451  _vm_pop                            vm
     0004448C  _vm_loop                           vm
     00044517  _vm_jump                           vm
     00044523  _wait_frames                       vm
     00044590  _vm_invoke                         vm
     000446BD  _vm_join                           vm
     0004471F  _vm_terminate                      vm
     0004474C  _vm_if                             vm
     00044891  _vm_if_const                       vm
     000449A6  _vm_push_value                     vm
     000449F8  _vm_push_value_ind                 vm
     00044A6D  _vm_push_reference                 vm
     00044AC4  _vm_reserve                        vm
     00044AF2  _vm_set                            vm
     00044B53  _vm_set_const                      vm
     00044B7F  _vm_get_tlocal                     vm
     00044C0C  _vm_test_terminate                 vm
     00044C17  _vm_idle                           vm
     00044C23  _vm_init_rng                       vm
     00044C4F  _vm_rand                           vm
     00044C91  _vm_lock                           vm
     00044CA0  _vm_unlock                         vm
     00044CB3  _vm_raise                          vm
     00044CF5  _vm_set_indirect                   vm
     00044D70  _vm_get_indirect                   vm
     00044DEB  _vm_poll_loaded                    vm
     00044E1B  _vm_memset                         vm
     00044E55  _vm_memcpy                         vm
     00044ED2  _script_runner_init                vm
ASxxxx Linker V03.00/V05.40 + sdld,  page 73.
Hexadecimal  [32-Bits]

Area                                    Addr        Size        Decimal Bytes (Attributes)
--------------------------------        ----        ----        ------- ----- ------------
_CODE_4                             00044000    00004000 =       16384. bytes (REL,CON)

      Value  Global                              Global Defined In Module
      -----  --------------------------------   ------------------------
     00044F89  _script_execute                    vm
     000450EF  _script_terminate                  vm
     00045154  _script_detach_hthread             vm
     00045190  _actor_18_interact                 actor_18_interact
     00045191  GBVM$actor_18_interact$1773237f_   actor_18_interact
     0004519A  GBVM$actor_18_interact$421d4689_   actor_18_interact
     0004519B  GBVM$actor_18_interact$262a5994_   actor_18_interact
     000451A0  GBVM$actor_18_interact$09ae63e7_   actor_18_interact
     000451A8  GBVM$actor_18_interact$2b34a437_   actor_18_interact
     000451AC  GBVM$actor_18_interact$b8aa88dc_   actor_18_interact
     000451B1  GBVM$actor_18_interact$f89dabf9_   actor_18_interact
     000451B6  GBVM_END$actor_18_interact$17732   actor_18_interact
     000451B7  ___func_font_gbs_variable_width    font_gbs_variable_width
     00046032  _font_gbs_variable_width           font_gbs_variable_width
     00047069  _song_rulz_fastpacespeedrace_0_D   song_rulz_fastpacespeedrace_
     00047FE5  _song_rulz_gonaspace_0_Data        song_rulz_gonaspace_0_Data
     00047FFA  ___func_scene_parallax_example_s   scene_parallax_example_sprit
     00047FFA  _scene_parallax_example_sprites    scene_parallax_example_sprit

ASxxxx Linker V03.00/V05.40 + sdld,  page 74.
Hexadecimal  [32-Bits]

Area                                    Addr        Size        Decimal Bytes (Attributes)
--------------------------------        ----        ----        ------- ----- ------------
_CODE_11                            000B4000    00003FFB =       16379. bytes (REL,CON)

      Value  Global                              Global Defined In Module
      -----  --------------------------------   ------------------------
     000B4068  _save_sram_banks                   
     000B40F0  _erase_flash                       
     000B4106  _music_init_driver                 music_manager
     000B4162  _music_init_events                 music_manager
     000B419E  _music_events_poll                 music_manager
     000B41C6  _music_pause                       music_manager
     000B41E8  ___func_VM_GBPRINTER               vm_gbprinter
     000B41E8  _vm_print_detect                   vm_gbprinter
     000B4237  _vm_print_overlay                  vm_gbprinter
     000B428C  ___func_VM_MATH                    vm_math
     000B428C  _vm_sin_scale                      vm_math
     000B4328  _vm_cos_scale                      vm_math
     000B43C6  ___func_VM_MUSIC                   vm_music
     000B43C6  _vm_music_play                     vm_music
     000B4413  _vm_music_stop                     vm_music
     000B4435  _vm_music_mute                     vm_music
     000B4473  _vm_music_routine                  vm_music
     000B449A  _vm_music_setpos                   vm_music
     000B44A0  _vm_sound_mastervol                vm_music
     000B44A6  _vm_sfx_play                       vm_music
     000B4519  ___func_VM_PROJECTILE              vm_projectiles
     000B4519  _vm_projectile_launch              vm_projectiles
     000B455A  _vm_projectile_load_type           vm_projectiles
     000B45EC  ___func_VM_RTC                     vm_rtc
     000B45EC  _vm_rtc_latch                      vm_rtc
     000B45F4  _vm_rtc_get                        vm_rtc
     000B465B  _vm_rtc_set                        vm_rtc
     000B46B9  _vm_rtc_start                      vm_rtc
     000B46DC  _itoa_fmt                          vm_ui_a
     000B4710  .utoa_fmt                          vm_ui_a
     000B47BA  _actor_20_interact                 actor_20_interact
     000B47BD  GBVM$actor_20_interact$832c82bf_   actor_20_interact
     000B47C6  GBVM$actor_20_interact$628c434d_   actor_20_interact
     000B47D1  GBVM$actor_20_interact$753125e9_   actor_20_interact
     000B4839  GBVM$actor_20_interact$92b67a21_   actor_20_interact
     000B48FA  GBVM_END$actor_20_interact$832c8   actor_20_interact
     000B48FB  _actor_angry_guy_interact          actor_angry_guy_interact
     000B48FE  GBVM$actor_angry_guy_interact$81   actor_angry_guy_interact
     000B4907  GBVM$actor_angry_guy_interact$10   actor_angry_guy_interact
     000B4948  GBVM$actor_angry_guy_interact$7a   actor_angry_guy_interact
     000B4954  GBVM$actor_angry_guy_interact$a9   actor_angry_guy_interact
     000B499B  GBVM$actor_angry_guy_interact$be   actor_angry_guy_interact
     000B49A0  GBVM_END$actor_angry_guy_interac   actor_angry_guy_interact
     000B49A1  _actor_ice_block_interact          actor_ice_block_interact
     000B49A4  GBVM$actor_ice_block_interact$b6   actor_ice_block_interact
     000B49CF  GBVM$actor_ice_block_interact$d4   actor_ice_block_interact
     000B4A4A  GBVM$actor_ice_block_interact$f8   actor_ice_block_interact
     000B4A72  GBVM$actor_ice_block_interact$be   actor_ice_block_interact
     000B4A9F  GBVM$actor_ice_block_interact$fa   actor_ice_block_interact
     000B4AA4  GBVM$actor_ice_block_interact$27   actor_ice_block_interact
ASxxxx Linker V03.00/V05.40 + sdld,  page 75.
Hexadecimal  [32-Bits]

Area                                    Addr        Size        Decimal Bytes (Attributes)
--------------------------------        ----        ----        ------- ----- ------------
_CODE_11                            000B4000    00003FFB =       16379. bytes (REL,CON)

      Value  Global                              Global Defined In Module
      -----  --------------------------------   ------------------------
     000B4AAC  GBVM$actor_ice_block_interact$8c   actor_ice_block_interact
     000B4AB9  GBVM$actor_ice_block_interact$c3   actor_ice_block_interact
     000B4AB9  GBVM_END$actor_ice_block_interac   actor_ice_block_interact
     000B4AB9  GBVM_END$actor_ice_block_interac   actor_ice_block_interact
     000B4ABF  _actor_pet_owner_interact          actor_pet_owner_interact
     000B4AC0  GBVM$actor_pet_owner_interact$13   actor_pet_owner_interact
     000B4B03  GBVM$actor_pet_owner_interact$ef   actor_pet_owner_interact
     000B4B0F  GBVM$actor_pet_owner_interact$a3   actor_pet_owner_interact
     000B4B5A  GBVM$actor_pet_owner_interact$d6   actor_pet_owner_interact
     000B4B5F  GBVM_END$actor_pet_owner_interac   actor_pet_owner_interact
     000B4B60  _actor_radio_guy_interact          actor_radio_guy_interact
     000B4B63  GBVM$actor_radio_guy_interact$82   actor_radio_guy_interact
     000B4B6C  GBVM$actor_radio_guy_interact$ae   actor_radio_guy_interact
     000B4BAD  GBVM$actor_radio_guy_interact$6b   actor_radio_guy_interact
     000B4BB8  GBVM$actor_radio_guy_interact$57   actor_radio_guy_interact
     000B4BFD  GBVM$actor_radio_guy_interact$f0   actor_radio_guy_interact
     000B4C05  GBVM$actor_radio_guy_interact$94   actor_radio_guy_interact
     000B4C4A  GBVM_END$actor_radio_guy_interac   actor_radio_guy_interact
     000B4C4B  _actor_sage_interact               actor_sage_interact
     000B4C4C  GBVM$actor_sage_interact$353bee9   actor_sage_interact
     000B4C93  GBVM$actor_sage_interact$3f4b829   actor_sage_interact
     000B4CD3  GBVM$actor_sage_interact$89023ce   actor_sage_interact
     000B4D1A  GBVM$actor_sage_interact$ac4ebd7   actor_sage_interact
     000B4D20  _actor_save_point_0_interact       actor_save_point_0_interact
     000B4D23  GBVM$actor_save_point_0_interact   actor_save_point_0_interact
     000B4D67  GBVM$actor_save_point_0_interact   actor_save_point_0_interact
     000B4D73  GBVM$actor_save_point_0_interact   actor_save_point_0_interact
     000B4D83  GBVM$actor_save_point_0_interact   actor_save_point_0_interact
     000B4DC5  GBVM$actor_save_point_0_interact   actor_save_point_0_interact
     000B4E14  GBVM$actor_save_point_0_interact   actor_save_point_0_interact
     000B4E1F  GBVM_END$actor_save_point_0_inte   actor_save_point_0_interact
     000B4E1F  GBVM_END$actor_save_point_0_inte   actor_save_point_0_interact
     000B4E20  _actor_save_point_1_interact       actor_save_point_1_interact
     000B4E23  GBVM$actor_save_point_1_interact   actor_save_point_1_interact
     000B4E67  GBVM$actor_save_point_1_interact   actor_save_point_1_interact
     000B4E73  GBVM$actor_save_point_1_interact   actor_save_point_1_interact
     000B4E83  GBVM$actor_save_point_1_interact   actor_save_point_1_interact
     000B4EC5  GBVM$actor_save_point_1_interact   actor_save_point_1_interact
     000B4F14  GBVM$actor_save_point_1_interact   actor_save_point_1_interact
     000B4F1F  GBVM_END$actor_save_point_1_inte   actor_save_point_1_interact
     000B4F1F  GBVM_END$actor_save_point_1_inte   actor_save_point_1_interact
     000B4F20  _actor_save_point_interact         actor_save_point_interact
     000B4F23  GBVM$actor_save_point_interact$a   actor_save_point_interact
     000B4F67  GBVM$actor_save_point_interact$f   actor_save_point_interact
     000B4F73  GBVM$actor_save_point_interact$c   actor_save_point_interact
     000B4F83  GBVM$actor_save_point_interact$3   actor_save_point_interact
     000B4FC5  GBVM$actor_save_point_interact$a   actor_save_point_interact
     000B5014  GBVM$actor_save_point_interact$a   actor_save_point_interact
     000B501F  GBVM_END$actor_save_point_intera   actor_save_point_interact
     000B501F  GBVM_END$actor_save_point_intera   actor_save_point_interact
     000B5020  _actor_scientist_interact          actor_scientist_interact
ASxxxx Linker V03.00/V05.40 + sdld,  page 76.
Hexadecimal  [32-Bits]

Area                                    Addr        Size        Decimal Bytes (Attributes)
--------------------------------        ----        ----        ------- ----- ------------
_CODE_11                            000B4000    00003FFB =       16379. bytes (REL,CON)

      Value  Global                              Global Defined In Module
      -----  --------------------------------   ------------------------
     000B5023  GBVM$actor_scientist_interact$29   actor_scientist_interact
     000B5064  GBVM$actor_scientist_interact$4e   actor_scientist_interact
     000B506D  GBVM$actor_scientist_interact$d3   actor_scientist_interact
     000B50B0  GBVM$actor_scientist_interact$b8   actor_scientist_interact
     000B50E0  _actor_scientist_update            actor_scientist_update
     000B50E2  GBVM$actor_scientist_update$4098   actor_scientist_update
     000B5105  GBVM$actor_scientist_update$f137   actor_scientist_update
     000B510E  GBVM$actor_scientist_update$44e1   actor_scientist_update
     000B511A  GBVM$actor_scientist_update$ebbb   actor_scientist_update
     000B513D  GBVM$actor_scientist_update$0ec8   actor_scientist_update
     000B5146  GBVM$actor_scientist_update$f89f   actor_scientist_update
     000B5152  GBVM$actor_scientist_update$4f84   actor_scientist_update
     000B5175  GBVM$actor_scientist_update$66cb   actor_scientist_update
     000B517E  GBVM$actor_scientist_update$9a8b   actor_scientist_update
     000B518A  GBVM$actor_scientist_update$1581   actor_scientist_update
     000B51B2  _actor_sign_post_0_interact        actor_sign_post_0_interact
     000B51B5  GBVM$actor_sign_post_0_interact$   actor_sign_post_0_interact
     000B51FF  GBVM$actor_sign_post_0_interact$   actor_sign_post_0_interact
     000B5244  GBVM$actor_sign_post_0_interact$   actor_sign_post_0_interact
     000B525B  _actor_space_dog_interact          actor_space_dog_interact
     000B525C  GBVM$actor_space_dog_interact$c8   actor_space_dog_interact
     000B5265  GBVM$actor_space_dog_interact$25   actor_space_dog_interact
     000B52A0  GBVM$actor_space_dog_interact$af   actor_space_dog_interact
     000B52A8  GBVM$actor_space_dog_interact$87   actor_space_dog_interact
     000B52FA  GBVM_END$actor_space_dog_interac   actor_space_dog_interact
     000B52FB  _actor_turnip_1_interact           actor_turnip_1_interact
     000B530E  GBVM$actor_turnip_1_interact$944   actor_turnip_1_interact
     000B5330  GBVM$actor_turnip_1_interact$251   actor_turnip_1_interact
     000B5335  GBVM$actor_turnip_1_interact$f3a   actor_turnip_1_interact
     000B5340  GBVM$actor_turnip_1_interact$127   actor_turnip_1_interact
     000B534A  GBVM$actor_turnip_1_interact$c5e   actor_turnip_1_interact
     000B5352  GBVM$actor_turnip_1_interact$088   actor_turnip_1_interact
     000B5361  GBVM$actor_turnip_1_interact$cf6   actor_turnip_1_interact
     000B536A  GBVM$actor_turnip_1_interact$4f0   actor_turnip_1_interact
     000B5376  GBVM$actor_turnip_1_interact$bc7   actor_turnip_1_interact
     000B5381  GBVM$actor_turnip_1_interact$925   actor_turnip_1_interact
     000B5397  GBVM$actor_turnip_1_interact$d21   actor_turnip_1_interact
     000B53B0  GBVM_END$actor_turnip_1_interact   actor_turnip_1_interact
     000B53B2  _actor_turnip_1_update             actor_turnip_1_update
     000B53B4  GBVM$actor_turnip_1_update$640f0   actor_turnip_1_update
     000B53D6  GBVM$actor_turnip_1_update$12ba5   actor_turnip_1_update
     000B542C  GBVM$actor_turnip_1_update$665c4   actor_turnip_1_update
     000B547F  GBVM$actor_turnip_1_update$2e505   actor_turnip_1_update
     000B547F  GBVM_END$actor_turnip_1_update$6   actor_turnip_1_update
     000B5490  _actor_turnip_2_interact           actor_turnip_2_interact
     000B54A3  GBVM$actor_turnip_2_interact$944   actor_turnip_2_interact
     000B54C5  GBVM$actor_turnip_2_interact$251   actor_turnip_2_interact
     000B54CA  GBVM$actor_turnip_2_interact$f3a   actor_turnip_2_interact
     000B54D5  GBVM$actor_turnip_2_interact$127   actor_turnip_2_interact
     000B54DF  GBVM$actor_turnip_2_interact$c5e   actor_turnip_2_interact
     000B54E7  GBVM$actor_turnip_2_interact$088   actor_turnip_2_interact
ASxxxx Linker V03.00/V05.40 + sdld,  page 77.
Hexadecimal  [32-Bits]

Area                                    Addr        Size        Decimal Bytes (Attributes)
--------------------------------        ----        ----        ------- ----- ------------
_CODE_11                            000B4000    00003FFB =       16379. bytes (REL,CON)

      Value  Global                              Global Defined In Module
      -----  --------------------------------   ------------------------
     000B54F6  GBVM$actor_turnip_2_interact$cf6   actor_turnip_2_interact
     000B54FF  GBVM$actor_turnip_2_interact$4f0   actor_turnip_2_interact
     000B550B  GBVM$actor_turnip_2_interact$bc7   actor_turnip_2_interact
     000B5516  GBVM$actor_turnip_2_interact$925   actor_turnip_2_interact
     000B552C  GBVM$actor_turnip_2_interact$d21   actor_turnip_2_interact
     000B5545  GBVM_END$actor_turnip_2_interact   actor_turnip_2_interact
     000B5547  _actor_turnip_2_update             actor_turnip_2_update
     000B5549  GBVM$actor_turnip_2_update$640f0   actor_turnip_2_update
     000B556B  GBVM$actor_turnip_2_update$12ba5   actor_turnip_2_update
     000B55C1  GBVM$actor_turnip_2_update$665c4   actor_turnip_2_update
     000B5614  GBVM$actor_turnip_2_update$2e505   actor_turnip_2_update
     000B5614  GBVM_END$actor_turnip_2_update$6   actor_turnip_2_update
     000B5625  _actor_turnip_3_interact           actor_turnip_3_interact
     000B5638  GBVM$actor_turnip_3_interact$944   actor_turnip_3_interact
     000B565A  GBVM$actor_turnip_3_interact$251   actor_turnip_3_interact
     000B565F  GBVM$actor_turnip_3_interact$f3a   actor_turnip_3_interact
     000B566A  GBVM$actor_turnip_3_interact$127   actor_turnip_3_interact
     000B5674  GBVM$actor_turnip_3_interact$c5e   actor_turnip_3_interact
     000B567C  GBVM$actor_turnip_3_interact$088   actor_turnip_3_interact
     000B568B  GBVM$actor_turnip_3_interact$cf6   actor_turnip_3_interact
     000B5694  GBVM$actor_turnip_3_interact$4f0   actor_turnip_3_interact
     000B56A0  GBVM$actor_turnip_3_interact$bc7   actor_turnip_3_interact
     000B56AB  GBVM$actor_turnip_3_interact$925   actor_turnip_3_interact
     000B56C1  GBVM$actor_turnip_3_interact$d21   actor_turnip_3_interact
     000B56DA  GBVM_END$actor_turnip_3_interact   actor_turnip_3_interact
     000B56DC  _actor_turnip_3_update             actor_turnip_3_update
     000B56DE  GBVM$actor_turnip_3_update$640f0   actor_turnip_3_update
     000B5700  GBVM$actor_turnip_3_update$12ba5   actor_turnip_3_update
     000B5756  GBVM$actor_turnip_3_update$665c4   actor_turnip_3_update
     000B57A9  GBVM$actor_turnip_3_update$2e505   actor_turnip_3_update
     000B57A9  GBVM_END$actor_turnip_3_update$6   actor_turnip_3_update
     000B57BA  ___func_bg_hidden_cave_tileset     bg_hidden_cave_tileset
     000B57BA  _bg_hidden_cave_tileset            bg_hidden_cave_tileset
     000B591C  ___func_bg_house_tileset           bg_house_tileset
     000B591C  _bg_house_tileset                  bg_house_tileset
     000B5A0E  ___func_scene_cave_actors          scene_cave_actors
     000B5A0E  _scene_cave_actors                 scene_cave_actors
     000B5B46  ___func_scene_cave_collisions      scene_cave_collisions
     000B5B46  _scene_cave_collisions             scene_cave_collisions
     000B5CAE  ___func_scene_dream_collisions     scene_dream_collisions
     000B5CAE  _scene_dream_collisions            scene_dream_collisions
     000B5E16  _scene_dream_init                  scene_dream_init
     000B5E19  GBVM$scene_dream_init$fe077452_b   scene_dream_init
     000B5E21  GBVM$scene_dream_init$cd305da2_f   scene_dream_init
     000B5E25  GBVM$scene_dream_init$autofade$a   scene_dream_init
     000B5E30  GBVM$scene_dream_init$8a9ed399_a   scene_dream_init
     000B5E59  GBVM$scene_dream_init$56dcd9e1_8   scene_dream_init
     000B5E97  GBVM$scene_dream_init$93cf5981_b   scene_dream_init
     000B5ECA  ___func_scene_launch_site_actors   scene_launch_site_actors
     000B5ECA  _scene_launch_site_actors          scene_launch_site_actors
     000B6002  ___func_scene_launch_site_collis   scene_launch_site_collisions
ASxxxx Linker V03.00/V05.40 + sdld,  page 78.
Hexadecimal  [32-Bits]

Area                                    Addr        Size        Decimal Bytes (Attributes)
--------------------------------        ----        ----        ------- ----- ------------
_CODE_11                            000B4000    00003FFB =       16379. bytes (REL,CON)

      Value  Global                              Global Defined In Module
      -----  --------------------------------   ------------------------
     000B6002  _scene_launch_site_collisions      scene_launch_site_collisions
     000B616A  ___func_scene_logo_collisions      scene_logo_collisions
     000B616A  _scene_logo_collisions             scene_logo_collisions
     000B62D2  ___func_scene_menu_page_1_actors   scene_menu_page_1_actors
     000B62D2  _scene_menu_page_1_actors          scene_menu_page_1_actors
     000B640A  ___func_scene_menu_page_1_collis   scene_menu_page_1_collisions
     000B640A  _scene_menu_page_1_collisions      scene_menu_page_1_collisions
     000B6572  _scene_menu_page_1_init            scene_menu_page_1_init
     000B6575  GBVM$scene_menu_page_1_init$b6fb   scene_menu_page_1_init
     000B6581  GBVM$scene_menu_page_1_init$1812   scene_menu_page_1_init
     000B6591  GBVM$scene_menu_page_1_init$0461   scene_menu_page_1_init
     000B6591  GBVM_END$scene_menu_page_1_init$   scene_menu_page_1_init
     000B659D  GBVM$scene_menu_page_1_init$5f9e   scene_menu_page_1_init
     000B65AD  GBVM$scene_menu_page_1_init$a9fd   scene_menu_page_1_init
     000B65AD  GBVM_END$scene_menu_page_1_init$   scene_menu_page_1_init
     000B65B9  GBVM$scene_menu_page_1_init$d6de   scene_menu_page_1_init
     000B65C9  GBVM$scene_menu_page_1_init$9dcf   scene_menu_page_1_init
     000B65C9  GBVM_END$scene_menu_page_1_init$   scene_menu_page_1_init
     000B65D5  GBVM$scene_menu_page_1_init$1742   scene_menu_page_1_init
     000B65E5  GBVM$scene_menu_page_1_init$e5e8   scene_menu_page_1_init
     000B65E5  GBVM_END$scene_menu_page_1_init$   scene_menu_page_1_init
     000B65F1  GBVM$scene_menu_page_1_init$d52f   scene_menu_page_1_init
     000B6601  GBVM$scene_menu_page_1_init$e169   scene_menu_page_1_init
     000B6601  GBVM_END$scene_menu_page_1_init$   scene_menu_page_1_init
     000B660D  GBVM$scene_menu_page_1_init$5030   scene_menu_page_1_init
     000B661D  GBVM$scene_menu_page_1_init$4238   scene_menu_page_1_init
     000B661D  GBVM_END$scene_menu_page_1_init$   scene_menu_page_1_init
     000B6625  GBVM$scene_menu_page_1_init$19f1   scene_menu_page_1_init
     000B6629  GBVM$scene_menu_page_1_init$auto   scene_menu_page_1_init
     000B6634  GBVM$scene_menu_page_1_init$caf9   scene_menu_page_1_init
     000B6636  GBVM$scene_menu_page_1_init$8680   scene_menu_page_1_init
     000B6669  ___func_scene_menu_page_2_actors   scene_menu_page_2_actors
     000B6669  _scene_menu_page_2_actors          scene_menu_page_2_actors
     000B676D  ___func_scene_menu_page_2_collis   scene_menu_page_2_collisions
     000B676D  _scene_menu_page_2_collisions      scene_menu_page_2_collisions
     000B68D5  _scene_menu_page_2_init            scene_menu_page_2_init
     000B68D8  GBVM$scene_menu_page_2_init$191f   scene_menu_page_2_init
     000B68E4  GBVM$scene_menu_page_2_init$49be   scene_menu_page_2_init
     000B68F4  GBVM$scene_menu_page_2_init$e04a   scene_menu_page_2_init
     000B68F4  GBVM_END$scene_menu_page_2_init$   scene_menu_page_2_init
     000B6900  GBVM$scene_menu_page_2_init$d663   scene_menu_page_2_init
     000B6910  GBVM$scene_menu_page_2_init$e697   scene_menu_page_2_init
     000B6910  GBVM_END$scene_menu_page_2_init$   scene_menu_page_2_init
     000B691C  GBVM$scene_menu_page_2_init$bf8b   scene_menu_page_2_init
     000B692C  GBVM$scene_menu_page_2_init$7919   scene_menu_page_2_init
     000B692C  GBVM_END$scene_menu_page_2_init$   scene_menu_page_2_init
     000B6938  GBVM$scene_menu_page_2_init$7c96   scene_menu_page_2_init
     000B6948  GBVM$scene_menu_page_2_init$8368   scene_menu_page_2_init
     000B6948  GBVM_END$scene_menu_page_2_init$   scene_menu_page_2_init
     000B6954  GBVM$scene_menu_page_2_init$0a04   scene_menu_page_2_init
     000B6964  GBVM$scene_menu_page_2_init$4384   scene_menu_page_2_init
ASxxxx Linker V03.00/V05.40 + sdld,  page 79.
Hexadecimal  [32-Bits]

Area                                    Addr        Size        Decimal Bytes (Attributes)
--------------------------------        ----        ----        ------- ----- ------------
_CODE_11                            000B4000    00003FFB =       16379. bytes (REL,CON)

      Value  Global                              Global Defined In Module
      -----  --------------------------------   ------------------------
     000B6964  GBVM_END$scene_menu_page_2_init$   scene_menu_page_2_init
     000B696C  GBVM$scene_menu_page_2_init$auto   scene_menu_page_2_init
     000B6977  GBVM$scene_menu_page_2_init$4657   scene_menu_page_2_init
     000B6979  GBVM$scene_menu_page_2_init$1091   scene_menu_page_2_init
     000B698E  ___func_scene_path_to_sample_tow   scene_path_to_sample_town_ac
     000B698E  _scene_path_to_sample_town_actor   scene_path_to_sample_town_ac
     000B6AC6  _scene_path_to_sample_town_init    scene_path_to_sample_town_in
     000B6AC9  GBVM$scene_path_to_sample_town_i   scene_path_to_sample_town_in
     000B6AD5  GBVM$scene_path_to_sample_town_i   scene_path_to_sample_town_in
     000B6ADD  GBVM$scene_path_to_sample_town_i   scene_path_to_sample_town_in
     000B6AF3  GBVM$scene_path_to_sample_town_i   scene_path_to_sample_town_in
     000B6AFF  GBVM$scene_path_to_sample_town_i   scene_path_to_sample_town_in
     000B6B07  GBVM$scene_path_to_sample_town_i   scene_path_to_sample_town_in
     000B6B1D  GBVM$scene_path_to_sample_town_i   scene_path_to_sample_town_in
     000B6B29  GBVM$scene_path_to_sample_town_i   scene_path_to_sample_town_in
     000B6B31  GBVM$scene_path_to_sample_town_i   scene_path_to_sample_town_in
     000B6B47  GBVM$scene_path_to_sample_town_i   scene_path_to_sample_town_in
     000B6B47  GBVM_END$scene_path_to_sample_to   scene_path_to_sample_town_in
     000B6B4B  GBVM$scene_path_to_sample_town_i   scene_path_to_sample_town_in
     000B6B4F  GBVM$scene_path_to_sample_town_i   scene_path_to_sample_town_in
     000B6B54  GBVM$scene_path_to_sample_town_i   scene_path_to_sample_town_in
     000B6B7C  GBVM$scene_path_to_sample_town_i   scene_path_to_sample_town_in
     000B6B8A  GBVM$scene_path_to_sample_town_i   scene_path_to_sample_town_in
     000B6B8A  GBVM_END$scene_path_to_sample_to   scene_path_to_sample_town_in
     000B6BB2  GBVM$scene_path_to_sample_town_i   scene_path_to_sample_town_in
     000B6BC0  GBVM$scene_path_to_sample_town_i   scene_path_to_sample_town_in
     000B6BC0  GBVM_END$scene_path_to_sample_to   scene_path_to_sample_town_in
     000B6BE8  GBVM$scene_path_to_sample_town_i   scene_path_to_sample_town_in
     000B6BF6  GBVM$scene_path_to_sample_town_i   scene_path_to_sample_town_in
     000B6BF6  GBVM_END$scene_path_to_sample_to   scene_path_to_sample_town_in
     000B6C02  ___func_scene_player_s_house_col   scene_player_s_house_collisi
     000B6C02  _scene_player_s_house_collisions   scene_player_s_house_collisi
     000B6D6A  ___func_scene_title_screen_colli   scene_title_screen_collision
     000B6D6A  _scene_title_screen_collisions     scene_title_screen_collision
     000B6ED2  _scene_title_screen_init           scene_title_screen_init
     000B6ED5  GBVM$scene_title_screen_init$82b   scene_title_screen_init
     000B6ED9  GBVM$scene_title_screen_init$ff7   scene_title_screen_init
     000B6EE1  GBVM$scene_title_screen_init$aut   scene_title_screen_init
     000B6EEC  GBVM$scene_title_screen_init$41b   scene_title_screen_init
     000B6EEE  GBVM$scene_title_screen_init$8ad   scene_title_screen_init
     000B6F02  GBVM$scene_title_screen_init$19a   scene_title_screen_init
     000B6F02  GBVM$scene_title_screen_init$447   scene_title_screen_init
     000B6F47  GBVM$scene_title_screen_init$9e7   scene_title_screen_init
     000B6F50  GBVM$scene_title_screen_init$d2c   scene_title_screen_init
     000B6F63  GBVM$scene_title_screen_init$06b   scene_title_screen_init
     000B6FA0  GBVM$scene_title_screen_init$4a9   scene_title_screen_init
     000B6FA4  GBVM_END$scene_title_screen_init   scene_title_screen_init
     000B6FA7  GBVM$scene_title_screen_init$a5d   scene_title_screen_init
     000B6FD9  GBVM_END$scene_title_screen_init   scene_title_screen_init
     000B6FDC  GBVM_END$scene_title_screen_init   scene_title_screen_init
     000B6FDD  ___func_scene_top_house_actors     scene_top_house_actors
ASxxxx Linker V03.00/V05.40 + sdld,  page 80.
Hexadecimal  [32-Bits]

Area                                    Addr        Size        Decimal Bytes (Attributes)
--------------------------------        ----        ----        ------- ----- ------------
_CODE_11                            000B4000    00003FFB =       16379. bytes (REL,CON)

      Value  Global                              Global Defined In Module
      -----  --------------------------------   ------------------------
     000B6FDD  _scene_top_house_actors            scene_top_house_actors
     000B70E1  ___func_scene_top_house_collisio   scene_top_house_collisions
     000B70E1  _scene_top_house_collisions        scene_top_house_collisions
     000B7249  ___func_scene_underground_actors   scene_underground_actors
     000B7249  _scene_underground_actors          scene_underground_actors
     000B7381  _script_timer                      script_timer
     000B7383  GBVM$script_timer$fb3e9a6c_a491_   script_timer
     000B73C5  GBVM$script_timer$418dc58d_8057_   script_timer
     000B7407  GBVM$script_timer$77f7c1aa_6c94_   script_timer
     000B744A  ___func_sprite_enemy_ship_tilese   sprite_enemy_ship_tileset
     000B744A  _sprite_enemy_ship_tileset         sprite_enemy_ship_tileset
     000B75AC  ___func_sprite_fire_tileset        sprite_fire_tileset
     000B75AC  _sprite_fire_tileset               sprite_fire_tileset
     000B76AE  ___func_sprite_npc003              sprite_npc003
     000B76AE  _sprite_npc003_metasprite_0        sprite_npc003
     000B76BA  _sprite_npc003_metasprite_1        sprite_npc003
     000B76C6  _sprite_npc003_metasprite_2        sprite_npc003
     000B76D2  _sprite_npc003_metasprite_3        sprite_npc003
     000B76DE  _sprite_npc003_metasprite_4        sprite_npc003
     000B76EA  _sprite_npc003_metasprite_5        sprite_npc003
     000B76F6  _sprite_npc003_metasprite_6        sprite_npc003
     000B7702  _sprite_npc003_metasprite_7        sprite_npc003
     000B770E  _sprite_npc003_metasprites         sprite_npc003
     000B7726  _sprite_npc003_animations          sprite_npc003
     000B7736  _sprite_npc003_animations_lookup   sprite_npc003
     000B7738  _sprite_npc003                     sprite_npc003
     000B774B  ___func_sprite_npc004              sprite_npc004
     000B774B  _sprite_npc004_metasprite_0        sprite_npc004
     000B7757  _sprite_npc004_metasprite_1        sprite_npc004
     000B7763  _sprite_npc004_metasprite_2        sprite_npc004
     000B776F  _sprite_npc004_metasprite_3        sprite_npc004
     000B777B  _sprite_npc004_metasprite_4        sprite_npc004
     000B7787  _sprite_npc004_metasprite_5        sprite_npc004
     000B7793  _sprite_npc004_metasprite_6        sprite_npc004
     000B779F  _sprite_npc004_metasprite_7        sprite_npc004
     000B77AB  _sprite_npc004_metasprites         sprite_npc004
     000B77C3  _sprite_npc004_animations          sprite_npc004
     000B77D3  _sprite_npc004_animations_lookup   sprite_npc004
     000B77D5  _sprite_npc004                     sprite_npc004
     000B77E8  ___func_sprite_npc005              sprite_npc005
     000B77E8  _sprite_npc005_metasprite_0        sprite_npc005
     000B77F4  _sprite_npc005_metasprite_1        sprite_npc005
     000B7800  _sprite_npc005_metasprite_2        sprite_npc005
     000B780C  _sprite_npc005_metasprite_3        sprite_npc005
     000B7818  _sprite_npc005_metasprite_4        sprite_npc005
     000B7824  _sprite_npc005_metasprite_5        sprite_npc005
     000B7830  _sprite_npc005_metasprite_6        sprite_npc005
     000B783C  _sprite_npc005_metasprite_7        sprite_npc005
     000B7848  _sprite_npc005_metasprites         sprite_npc005
     000B7860  _sprite_npc005_animations          sprite_npc005
     000B7870  _sprite_npc005_animations_lookup   sprite_npc005
ASxxxx Linker V03.00/V05.40 + sdld,  page 81.
Hexadecimal  [32-Bits]

Area                                    Addr        Size        Decimal Bytes (Attributes)
--------------------------------        ----        ----        ------- ----- ------------
_CODE_11                            000B4000    00003FFB =       16379. bytes (REL,CON)

      Value  Global                              Global Defined In Module
      -----  --------------------------------   ------------------------
     000B7872  _sprite_npc005                     sprite_npc005
     000B7885  ___func_sprite_npc007_tileset      sprite_npc007_tileset
     000B7885  _sprite_npc007_tileset             sprite_npc007_tileset
     000B7947  ___func_sprite_npc008_tileset      sprite_npc008_tileset
     000B7947  _sprite_npc008_tileset             sprite_npc008_tileset
     000B7A49  ___func_sprite_player_ship_tiles   sprite_player_ship_tileset
     000B7A49  _sprite_player_ship_tileset        sprite_player_ship_tileset
     000B7B6B  ___func_sprite_player_ship         sprite_player_ship
     000B7B6B  _sprite_player_ship_metasprite_0   sprite_player_ship
     000B7B77  _sprite_player_ship_metasprite_1   sprite_player_ship
     000B7B83  _sprite_player_ship_metasprite_2   sprite_player_ship
     000B7B8F  _sprite_player_ship_metasprite_3   sprite_player_ship
     000B7B9B  _sprite_player_ship_metasprite_4   sprite_player_ship
     000B7BA7  _sprite_player_ship_metasprite_5   sprite_player_ship
     000B7BB3  _sprite_player_ship_metasprite_6   sprite_player_ship
     000B7BBF  _sprite_player_ship_metasprite_7   sprite_player_ship
     000B7BCB  _sprite_player_ship_metasprites    sprite_player_ship
     000B7BE3  _sprite_player_ship_animations     sprite_player_ship
     000B7BF3  _sprite_player_ship_animations_l   sprite_player_ship
     000B7BF5  _sprite_player_ship                sprite_player_ship
     000B7C08  ___func_sprite_player              sprite_player
     000B7C08  _sprite_player_metasprite_0        sprite_player
     000B7C14  _sprite_player_metasprite_1        sprite_player
     000B7C20  _sprite_player_metasprite_2        sprite_player
     000B7C2C  _sprite_player_metasprite_3        sprite_player
     000B7C38  _sprite_player_metasprite_4        sprite_player
     000B7C44  _sprite_player_metasprite_5        sprite_player
     000B7C50  _sprite_player_metasprite_6        sprite_player
     000B7C5C  _sprite_player_metasprite_7        sprite_player
     000B7C68  _sprite_player_metasprites         sprite_player
     000B7C80  _sprite_player_animations          sprite_player
     000B7C90  _sprite_player_animations_lookup   sprite_player
     000B7C92  _sprite_player                     sprite_player
     000B7CA5  ___func_sprite_pod_door_tileset    sprite_pod_door_tileset
     000B7CA5  _sprite_pod_door_tileset           sprite_pod_door_tileset
     000B7D07  ___func_sprite_portal_tileset      sprite_portal_tileset
     000B7D07  _sprite_portal_tileset             sprite_portal_tileset
     000B7DC9  ___func_sprite_turnip_tileset      sprite_turnip_tileset
     000B7DC9  _sprite_turnip_tileset             sprite_turnip_tileset
     000B7E8B  _trigger_10_interact               trigger_10_interact
     000B7E8E  GBVM$trigger_10_interact$821c37f   trigger_10_interact
     000B7E9A  GBVM$trigger_10_interact$542c771   trigger_10_interact
     000B7EC5  GBVM$trigger_10_interact$416861a   trigger_10_interact
     000B7ECE  GBVM$trigger_10_interact$c2ae413   trigger_10_interact
     000B7ED9  GBVM$trigger_10_interact$948ee67   trigger_10_interact
     000B7EFC  GBVM$trigger_10_interact$54e8de9   trigger_10_interact
     000B7F1F  GBVM$trigger_10_interact$9320bf1   trigger_10_interact
     000B7F42  GBVM_END$trigger_10_interact$542   trigger_10_interact
     000B7F42  GBVM_END$trigger_10_interact$821   trigger_10_interact
     000B7F43  _trigger_11_interact               trigger_11_interact
     000B7F46  GBVM$trigger_11_interact$8ca632e   trigger_11_interact
ASxxxx Linker V03.00/V05.40 + sdld,  page 82.
Hexadecimal  [32-Bits]

Area                                    Addr        Size        Decimal Bytes (Attributes)
--------------------------------        ----        ----        ------- ----- ------------
_CODE_11                            000B4000    00003FFB =       16379. bytes (REL,CON)

      Value  Global                              Global Defined In Module
      -----  --------------------------------   ------------------------
     000B7F52  GBVM$trigger_11_interact$783d406   trigger_11_interact
     000B7F7D  GBVM$trigger_11_interact$3424533   trigger_11_interact
     000B7F86  GBVM$trigger_11_interact$7e752fa   trigger_11_interact
     000B7F91  GBVM$trigger_11_interact$d5aa912   trigger_11_interact
     000B7FB4  GBVM$trigger_11_interact$35d3fc8   trigger_11_interact
     000B7FD7  GBVM$trigger_11_interact$3a2b8c4   trigger_11_interact
     000B7FFA  GBVM_END$trigger_11_interact$783   trigger_11_interact
     000B7FFA  GBVM_END$trigger_11_interact$8ca   trigger_11_interact

ASxxxx Linker V03.00/V05.40 + sdld,  page 83.
Hexadecimal  [32-Bits]

Area                                    Addr        Size        Decimal Bytes (Attributes)
--------------------------------        ----        ----        ------- ----- ------------
_HEADER_SIO0                        00000000    00000004 =           4. bytes (ABS,CON)

      Value  Global                              Global Defined In Module
      -----  --------------------------------   ------------------------
ASxxxx Linker V03.00/V05.40 + sdld,  page 84.
Hexadecimal  [32-Bits]

Area                                    Addr        Size        Decimal Bytes (Attributes)
--------------------------------        ----        ----        ------- ----- ------------
_HEADER_TIMER0                      00000000    00000004 =           4. bytes (ABS,CON)

      Value  Global                              Global Defined In Module
      -----  --------------------------------   ------------------------
ASxxxx Linker V03.00/V05.40 + sdld,  page 85.
Hexadecimal  [32-Bits]

Area                                    Addr        Size        Decimal Bytes (Attributes)
--------------------------------        ----        ----        ------- ----- ------------
_CODE_2                             00024000    00004000 =       16384. bytes (REL,CON)

      Value  Global                              Global Defined In Module
      -----  --------------------------------   ------------------------
     00024000  ___func_VM_ACTOR                   vm_actor
     00024000  _vm_actor_move_to                  vm_actor
     00024A46  _vm_actor_move_cancel              vm_actor
     00024A7C  _vm_actor_activate                 vm_actor
     00024ACD  _vm_actor_deactivate               vm_actor
     00024B1E  _vm_actor_begin_update             vm_actor
     00024BA5  _vm_actor_terminate_update         vm_actor
     00024BEC  _vm_actor_set_dir                  vm_actor
     00024C35  _vm_actor_set_anim                 vm_actor
     00024CC3  _vm_actor_set_pos                  vm_actor
     00024D3D  _vm_actor_get_pos                  vm_actor
     00024DAC  _vm_actor_get_dir                  vm_actor
     00024E26  _vm_actor_get_angle                vm_actor
     00024EA7  _vm_actor_emote                    vm_actor
     00024F6B  _vm_actor_set_bounds               vm_actor
     00024FC9  _vm_actor_set_spritesheet          vm_actor
     00025093  _vm_actor_replace_tile             vm_actor
     000250FE  _vm_actor_set_anim_tick            vm_actor
     0002513C  _vm_actor_set_move_speed           vm_actor
     0002517A  _vm_actor_set_anim_frame           vm_actor
     000251BE  _vm_actor_get_anim_frame           vm_actor
     00025208  _vm_actor_set_anim_set             vm_actor
     00025290  _vm_actor_set_spritesheet_by_ref   vm_actor
     0002539D  _vm_actor_set_flags                vm_actor
     0002544B  ___func_bg_leaving_earth_tilemap   bg_leaving_earth_tilemap_att
     0002544B  _bg_leaving_earth_tilemap_attr     bg_leaving_earth_tilemap_att
     000278C8  _song_rulz_lightmood_0_Data        song_rulz_lightmood_0_Data
     000278DD  ___func_sprite_fire                sprite_fire
     000278DD  _sprite_fire_metasprite_0          sprite_fire
     000278E9  _sprite_fire_metasprite_1          sprite_fire
     000278F5  _sprite_fire_metasprite_2          sprite_fire
     00027901  _sprite_fire_metasprite_3          sprite_fire
     0002790D  _sprite_fire_metasprites           sprite_fire
     00027915  _sprite_fire_animations            sprite_fire
     00027925  _sprite_fire_animations_lookup     sprite_fire
     00027927  _sprite_fire                       sprite_fire
     0002793A  _topdown_init                      topdown
     000279D6  _topdown_update                    topdown

ASxxxx Linker V03.00/V05.40 + sdld,  page 86.
Hexadecimal  [32-Bits]

Area                                    Addr        Size        Decimal Bytes (Attributes)
--------------------------------        ----        ----        ------- ----- ------------
_CODE_8                             00084000    00003FFC =       16380. bytes (REL,CON)

      Value  Global                              Global Defined In Module
      -----  --------------------------------   ------------------------
     00084000  ___func_VM_GAMEBOY                 vm_gameboy
     00084000  _vm_set_sprites_visible            vm_gameboy
     00084017  _vm_input_wait                     vm_gameboy
     00084040  _vm_context_prepare                vm_gameboy
     0008406B  _vm_input_attach                   vm_gameboy
     00084081  _vm_input_detach                   vm_gameboy
     00084095  _vm_input_get                      vm_gameboy
     000840C9  _vm_fade                           vm_gameboy
     000840F9  _vm_timer_prepare                  vm_gameboy
     00084124  _vm_timer_set                      vm_gameboy
     0008413F  _vm_timer_stop                     vm_gameboy
     00084153  _vm_timer_reset                    vm_gameboy
     0008416A  _vm_get_tile_xy                    vm_gameboy
     00084240  _vm_replace_tile                   vm_gameboy
     000842EB  _vm_poll                           vm_gameboy
     000843BD  _vm_set_sprite_mode                vm_gameboy
     000843D1  _vm_replace_tile_xy                vm_gameboy
     000845B1  _vm_rumble                         vm_gameboy
     000845D1  _vm_load_tileset                   vm_gameboy
     000846A2  ___func_bg_launch_site_tileset     bg_launch_site_tileset
     000846A2  _bg_launch_site_tileset            bg_launch_site_tileset
     00084C44  ___func_bg_logo_tileset            bg_logo_tileset
     00084C44  _bg_logo_tileset                   bg_logo_tileset
     00085146  ___func_bg_parallax_tilemap_attr   bg_parallax_tilemap_attr
     00085146  _bg_parallax_tilemap_attr          bg_parallax_tilemap_attr
     000856E6  ___func_bg_parallax_tilemap        bg_parallax_tilemap
     000856E6  _bg_parallax_tilemap               bg_parallax_tilemap
     00085C86  ___func_bg_sample_town_tileset     bg_sample_town_tileset
     00085C86  _bg_sample_town_tileset            bg_sample_town_tileset
     00086188  ___func_bg_stars_tilemap_attr      bg_stars_tilemap_attr
     00086188  _bg_stars_tilemap_attr             bg_stars_tilemap_attr
     00086588  ___func_bg_stars_tilemap           bg_stars_tilemap
     00086588  _bg_stars_tilemap                  bg_stars_tilemap
     00086988  ___func_bg_titlescreen_tileset     bg_titlescreen_tileset
     00086988  _bg_titlescreen_tileset            bg_titlescreen_tileset
     0008700A  ___func_bg_underground_tilemap_a   bg_underground_tilemap_attr
     0008700A  _bg_underground_tilemap_attr       bg_underground_tilemap_attr
     0008740A  ___func_bg_underground_tilemap     bg_underground_tilemap
     0008740A  _bg_underground_tilemap            bg_underground_tilemap
     0008780A  ___func_bg_underground_tileset     bg_underground_tileset
     0008780A  _bg_underground_tileset            bg_underground_tileset
     00087A5C  ___func_scene_parallax_example_c   scene_parallax_example_colli
     00087A5C  _scene_parallax_example_collisio   scene_parallax_example_colli

ASxxxx Linker V03.00/V05.40 + sdld,  page 87.
Hexadecimal  [32-Bits]

Area                                    Addr        Size        Decimal Bytes (Attributes)
--------------------------------        ----        ----        ------- ----- ------------
_CODE_10                            000A4000    00003FFC =       16380. bytes (REL,CON)

      Value  Global                              Global Defined In Module
      -----  --------------------------------   ------------------------
     000A4000  ___func_VM_PALETTE                 vm_palette
     000A4000  _vm_load_palette                   vm_palette
     000A41A9  _actor_gardener_interact           actor_gardener_interact
     000A41AC  GBVM$actor_gardener_interact$084   actor_gardener_interact
     000A41B8  GBVM$actor_gardener_interact$b0b   actor_gardener_interact
     000A41FD  GBVM$actor_gardener_interact$3cb   actor_gardener_interact
     000A422C  GBVM$actor_gardener_interact$96e   actor_gardener_interact
     000A4231  GBVM$actor_gardener_interact$584   actor_gardener_interact
     000A4231  GBVM_END$actor_gardener_interact   actor_gardener_interact
     000A423A  GBVM$actor_gardener_interact$75e   actor_gardener_interact
     000A4281  GBVM$actor_gardener_interact$7bc   actor_gardener_interact
     000A428D  GBVM$actor_gardener_interact$474   actor_gardener_interact
     000A42C5  GBVM$actor_gardener_interact$151   actor_gardener_interact
     000A430B  GBVM$actor_gardener_interact$88b   actor_gardener_interact
     000A4316  GBVM$actor_gardener_interact$de6   actor_gardener_interact
     000A431B  GBVM_END$actor_gardener_interact   actor_gardener_interact
     000A431C  _actor_pet_owner_update            actor_pet_owner_update
     000A431E  GBVM$actor_pet_owner_update$df30   actor_pet_owner_update
     000A432A  GBVM$actor_pet_owner_update$1cdb   actor_pet_owner_update
     000A4331  GBVM$actor_pet_owner_update$fb2c   actor_pet_owner_update
     000A4346  GBVM$actor_pet_owner_update$482f   actor_pet_owner_update
     000A4355  GBVM$actor_pet_owner_update$6be1   actor_pet_owner_update
     000A43AB  GBVM$actor_pet_owner_update$710b   actor_pet_owner_update
     000A4401  GBVM$actor_pet_owner_update$0016   actor_pet_owner_update
     000A4457  GBVM$actor_pet_owner_update$6065   actor_pet_owner_update
     000A44AD  GBVM_END$actor_pet_owner_update$   actor_pet_owner_update
     000A44B2  ___func_bg_black_tilemap_attr      bg_black_tilemap_attr
     000A44B2  _bg_black_tilemap_attr             bg_black_tilemap_attr
     000A461A  ___func_bg_black_tilemap           bg_black_tilemap
     000A461A  _bg_black_tilemap                  bg_black_tilemap
     000A4782  ___func_bg_cave_tilemap_attr       bg_cave_tilemap_attr
     000A4782  _bg_cave_tilemap_attr              bg_cave_tilemap_attr
     000A48EA  ___func_bg_cave_tilemap            bg_cave_tilemap
     000A48EA  _bg_cave_tilemap                   bg_cave_tilemap
     000A4A52  ___func_bg_cave_tileset            bg_cave_tileset
     000A4A52  _bg_cave_tileset                   bg_cave_tileset
     000A4BD4  ___func_bg_hidden_cave_tilemap     bg_hidden_cave_tilemap
     000A4BD4  _bg_hidden_cave_tilemap            bg_hidden_cave_tilemap
     000A4E14  ___func_bg_house_tilemap_attr      bg_house_tilemap_attr
     000A4E14  _bg_house_tilemap_attr             bg_house_tilemap_attr
     000A4F7C  ___func_bg_house_tilemap           bg_house_tilemap
     000A4F7C  _bg_house_tilemap                  bg_house_tilemap
     000A50E4  ___func_bg_launch_site_tilemap_a   bg_launch_site_tilemap_attr
     000A50E4  _bg_launch_site_tilemap_attr       bg_launch_site_tilemap_attr
     000A524C  ___func_bg_launch_site_tilemap     bg_launch_site_tilemap
     000A524C  _bg_launch_site_tilemap            bg_launch_site_tilemap
     000A53B4  ___func_bg_logo_tilemap_attr       bg_logo_tilemap_attr
     000A53B4  _bg_logo_tilemap_attr              bg_logo_tilemap_attr
     000A551C  ___func_bg_logo_tilemap            bg_logo_tilemap
     000A551C  _bg_logo_tilemap                   bg_logo_tilemap
ASxxxx Linker V03.00/V05.40 + sdld,  page 88.
Hexadecimal  [32-Bits]

Area                                    Addr        Size        Decimal Bytes (Attributes)
--------------------------------        ----        ----        ------- ----- ------------
_CODE_10                            000A4000    00003FFC =       16380. bytes (REL,CON)

      Value  Global                              Global Defined In Module
      -----  --------------------------------   ------------------------
     000A5684  ___func_bg_menu_page1_tilemap_at   bg_menu_page1_tilemap_attr
     000A5684  _bg_menu_page1_tilemap_attr        bg_menu_page1_tilemap_attr
     000A57EC  ___func_bg_menu_page1_tilemap      bg_menu_page1_tilemap
     000A57EC  _bg_menu_page1_tilemap             bg_menu_page1_tilemap
     000A5954  ___func_bg_menu_page2_tilemap_at   bg_menu_page2_tilemap_attr
     000A5954  _bg_menu_page2_tilemap_attr        bg_menu_page2_tilemap_attr
     000A5ABC  ___func_bg_menu_page2_tilemap      bg_menu_page2_tilemap
     000A5ABC  _bg_menu_page2_tilemap             bg_menu_page2_tilemap
     000A5C24  ___func_bg_menu_page2_tileset      bg_menu_page2_tileset
     000A5C24  _bg_menu_page2_tileset             bg_menu_page2_tileset
     000A5DF6  ___func_bg_room_tilemap_attr       bg_room_tilemap_attr
     000A5DF6  _bg_room_tilemap_attr              bg_room_tilemap_attr
     000A5F5E  ___func_bg_room_tilemap            bg_room_tilemap
     000A5F5E  _bg_room_tilemap                   bg_room_tilemap
     000A60C6  ___func_bg_titlescreen_tilemap_a   bg_titlescreen_tilemap_attr
     000A60C6  _bg_titlescreen_tilemap_attr       bg_titlescreen_tilemap_attr
     000A622E  ___func_bg_titlescreen_tilemap     bg_titlescreen_tilemap
     000A622E  _bg_titlescreen_tilemap            bg_titlescreen_tilemap
     000A6396  ___func_scene_17_actors            scene_17_actors
     000A6396  _scene_17_actors                   scene_17_actors
     000A656A  ___func_scene_17_collisions        scene_17_collisions
     000A656A  _scene_17_collisions               scene_17_collisions
     000A66D2  ___func_scene_deeper_underground   scene_deeper_underground_col
     000A66D2  _scene_deeper_underground_collis   scene_deeper_underground_col
     000A6912  ___func_scene_sample_town_actors   scene_sample_town_actors
     000A6912  _scene_sample_town_actors          scene_sample_town_actors
     000A6AE6  _script_enemy_ship_movement__0     script_enemy_ship_movement__
     000A6AE8  GBVM$script_enemy_ship_movement_   script_enemy_ship_movement__
     000A6B3B  GBVM$script_enemy_ship_movement_   script_enemy_ship_movement__
     000A6B8E  GBVM$script_enemy_ship_movement_   script_enemy_ship_movement__
     000A6BAA  GBVM$script_enemy_ship_movement_   script_enemy_ship_movement__
     000A6BFD  GBVM$script_enemy_ship_movement_   script_enemy_ship_movement__
     000A6C54  _script_enemy_ship_movement__1     script_enemy_ship_movement__
     000A6C56  GBVM$script_enemy_ship_movement_   script_enemy_ship_movement__
     000A6CA9  GBVM$script_enemy_ship_movement_   script_enemy_ship_movement__
     000A6CFC  GBVM$script_enemy_ship_movement_   script_enemy_ship_movement__
     000A6D18  GBVM$script_enemy_ship_movement_   script_enemy_ship_movement__
     000A6D6B  GBVM$script_enemy_ship_movement_   script_enemy_ship_movement__
     000A6DC2  _script_enemy_ship_movement__2     script_enemy_ship_movement__
     000A6DC4  GBVM$script_enemy_ship_movement_   script_enemy_ship_movement__
     000A6E17  GBVM$script_enemy_ship_movement_   script_enemy_ship_movement__
     000A6E6A  GBVM$script_enemy_ship_movement_   script_enemy_ship_movement__
     000A6E86  GBVM$script_enemy_ship_movement_   script_enemy_ship_movement__
     000A6ED9  GBVM$script_enemy_ship_movement_   script_enemy_ship_movement__
     000A6F30  _script_enemy_ship_movement_       script_enemy_ship_movement_
     000A6F32  GBVM$script_enemy_ship_movement_   script_enemy_ship_movement_
     000A6F85  GBVM$script_enemy_ship_movement_   script_enemy_ship_movement_
     000A6FD8  GBVM$script_enemy_ship_movement_   script_enemy_ship_movement_
     000A6FF4  GBVM$script_enemy_ship_movement_   script_enemy_ship_movement_
     000A7047  GBVM$script_enemy_ship_movement_   script_enemy_ship_movement_
     000A709E  ___func_sprite_npc002_tileset      sprite_npc002_tileset
ASxxxx Linker V03.00/V05.40 + sdld,  page 89.
Hexadecimal  [32-Bits]

Area                                    Addr        Size        Decimal Bytes (Attributes)
--------------------------------        ----        ----        ------- ----- ------------
_CODE_10                            000A4000    00003FFC =       16380. bytes (REL,CON)

      Value  Global                              Global Defined In Module
      -----  --------------------------------   ------------------------
     000A709E  _sprite_npc002_tileset             sprite_npc002_tileset
     000A7160  ___func_sprite_npc003_tileset      sprite_npc003_tileset
     000A7160  _sprite_npc003_tileset             sprite_npc003_tileset
     000A72E2  ___func_sprite_npc004_tileset      sprite_npc004_tileset
     000A72E2  _sprite_npc004_tileset             sprite_npc004_tileset
     000A7464  ___func_sprite_npc005_tileset      sprite_npc005_tileset
     000A7464  _sprite_npc005_tileset             sprite_npc005_tileset
     000A75E6  ___func_sprite_player_platform_t   sprite_player_platform_tiles
     000A75E6  _sprite_player_platform_tileset    sprite_player_platform_tiles
     000A7808  ___func_sprite_player_platform     sprite_player_platform
     000A7808  _sprite_player_platform_metaspri   sprite_player_platform
     000A781C  _sprite_player_platform_metaspri   sprite_player_platform
     000A7830  _sprite_player_platform_metaspri   sprite_player_platform
     000A7844  _sprite_player_platform_metaspri   sprite_player_platform
     000A7858  _sprite_player_platform_metaspri   sprite_player_platform
     000A786C  _sprite_player_platform_metaspri   sprite_player_platform
     000A7880  _sprite_player_platform_metaspri   sprite_player_platform
     000A7894  _sprite_player_platform_metaspri   sprite_player_platform
     000A78A8  _sprite_player_platform_metaspri   sprite_player_platform
     000A78AC  _sprite_player_platform_metaspri   sprite_player_platform
     000A78C0  _sprite_player_platform_metaspri   sprite_player_platform
     000A78D4  _sprite_player_platform_metaspri   sprite_player_platform
     000A78E8  _sprite_player_platform_metaspri   sprite_player_platform
     000A78FC  _sprite_player_platform_metaspri   sprite_player_platform
     000A7910  _sprite_player_platform_metaspri   sprite_player_platform
     000A7924  _sprite_player_platform_metaspri   sprite_player_platform
     000A7938  _sprite_player_platform_metaspri   sprite_player_platform
     000A794C  _sprite_player_platform_metaspri   sprite_player_platform
     000A797A  _sprite_player_platform_animatio   sprite_player_platform
     000A798A  _sprite_player_platform_animatio   sprite_player_platform
     000A798C  _sprite_player_platform            sprite_player_platform
     000A799F  ___func_sprite_player_tileset      sprite_player_tileset
     000A799F  _sprite_player_tileset             sprite_player_tileset
     000A7B21  ___func_sprite_space_mine_tilese   sprite_space_mine_tileset
     000A7B21  _sprite_space_mine_tileset         sprite_space_mine_tileset
     000A7CA3  _trigger_13_interact               trigger_13_interact
     000A7CA6  GBVM$trigger_13_interact$22bb46d   trigger_13_interact
     000A7CA6  GBVM$trigger_13_interact$89c1617   trigger_13_interact
     000A7CAE  GBVM$trigger_13_interact$654c931   trigger_13_interact
     000A7D01  GBVM$trigger_13_interact$555ccd2   trigger_13_interact
     000A7D0A  GBVM$trigger_13_interact$c3cba2b   trigger_13_interact
     000A7D15  GBVM$trigger_13_interact$accaff9   trigger_13_interact
     000A7D55  GBVM$trigger_13_interact$23f6fc0   trigger_13_interact
     000A7DA8  GBVM$trigger_13_interact$17e0320   trigger_13_interact
     000A7DB1  GBVM$trigger_13_interact$9ea793c   trigger_13_interact
     000A7DBA  GBVM$trigger_13_interact$dcff18d   trigger_13_interact
     000A7DC5  GBVM$trigger_13_interact$b499e28   trigger_13_interact
     000A7E18  GBVM$trigger_13_interact$31ddde0   trigger_13_interact
     000A7E20  GBVM$trigger_13_interact$2ccc46e   trigger_13_interact
     000A7E25  GBVM_END$trigger_13_interact$89c   trigger_13_interact
     000A7E26  _trigger_38_interact               trigger_38_interact
ASxxxx Linker V03.00/V05.40 + sdld,  page 90.
Hexadecimal  [32-Bits]

Area                                    Addr        Size        Decimal Bytes (Attributes)
--------------------------------        ----        ----        ------- ----- ------------
_CODE_10                            000A4000    00003FFC =       16380. bytes (REL,CON)

      Value  Global                              Global Defined In Module
      -----  --------------------------------   ------------------------
     000A7E29  GBVM$trigger_38_interact$a3d6721   trigger_38_interact
     000A7E51  GBVM$trigger_38_interact$b62f795   trigger_38_interact
     000A7E55  GBVM$trigger_38_interact$e551d04   trigger_38_interact
     000A7E5D  GBVM$trigger_38_interact$17896c2   trigger_38_interact
     000A7E65  GBVM$trigger_38_interact$7d175cf   trigger_38_interact
     000A7E71  GBVM$trigger_38_interact$4a0c48e   trigger_38_interact
     000A7E81  GBVM$trigger_38_interact$445736e   trigger_38_interact
     000A7E8D  GBVM$trigger_38_interact$68478e5   trigger_38_interact
     000A7E9D  GBVM$trigger_38_interact$17b8ed6   trigger_38_interact
     000A7EA9  GBVM$trigger_38_interact$0e6424f   trigger_38_interact
     000A7EC2  GBVM$trigger_38_interact$2cf9181   trigger_38_interact
     000A7EC7  GBVM$trigger_38_interact$ec96112   trigger_38_interact
     000A7EFC  GBVM$trigger_38_interact$3653455   trigger_38_interact
     000A7F05  GBVM$trigger_38_interact$69fefce   trigger_38_interact
     000A7F4F  GBVM$trigger_38_interact$0829200   trigger_38_interact
     000A7F9D  GBVM$trigger_38_interact$a0f1af0   trigger_38_interact
     000A7FF0  GBVM$trigger_38_interact$0a6095a   trigger_38_interact
     000A7FFB  GBVM_END$trigger_38_interact$a3d   trigger_38_interact

ASxxxx Linker V03.00/V05.40 + sdld,  page 91.
Hexadecimal  [32-Bits]

Area                                    Addr        Size        Decimal Bytes (Attributes)
--------------------------------        ----        ----        ------- ----- ------------
_CODE_6                             00064000    00003FFE =       16382. bytes (REL,CON)

      Value  Global                              Global Defined In Module
      -----  --------------------------------   ------------------------
     00064000  ___func_VM_UI                      vm_ui
     00064000  _vm_display_text                   vm_ui
     00064069  _vm_switch_text_layer              vm_ui
     00064083  _vm_overlay_setpos                 vm_ui
     0006409D  _vm_overlay_wait                   vm_ui
     0006412D  _vm_overlay_move_to                vm_ui
     00064171  _vm_overlay_set_scroll             vm_ui
     000641AA  _vm_overlay_clear                  vm_ui
     0006427C  _vm_overlay_show                   vm_ui
     000642CA  _vm_choice                         vm_ui
     000643E5  _vm_set_font                       vm_ui
     00064414  _vm_overlay_scroll                 vm_ui
     00064475  _vm_overlay_set_submap             vm_ui
     000644E1  _vm_overlay_set_submap_ex          vm_ui
     000645E2  _vm_overlay_set_map                vm_ui
     00064741  _vm_set_text_sound                 vm_ui
     0006475A  _actor_machine_0_interact          actor_machine_0_interact
     0006475B  GBVM$actor_machine_0_interact$ce   actor_machine_0_interact
     00064790  ___func_bg_parallax_tileset        bg_parallax_tileset
     00064790  _bg_parallax_tileset               bg_parallax_tileset
     00065382  ___func_bg_platform_path_tilemap   bg_platform_path_tilemap
     00065382  _bg_platform_path_tilemap          bg_platform_path_tilemap
     000669AB  _song_drum_example_Data            song_drum_example_Data
     00067497  _song_echo_example_Data            song_echo_example_Data
     000674AC  ___func_scene_path_to_sample_tow   scene_path_to_sample_town_co
     000674AC  _scene_path_to_sample_town_colli   scene_path_to_sample_town_co

ASxxxx Linker V03.00/V05.40 + sdld,  page 92.
Hexadecimal  [32-Bits]

Area                                    Addr        Size        Decimal Bytes (Attributes)
--------------------------------        ----        ----        ------- ----- ------------
_CODE_3                             00034000    00004000 =       16384. bytes (REL,CON)

      Value  Global                              Global Defined In Module
      -----  --------------------------------   ------------------------
     00034000  _actor_chest_interact              actor_chest_interact
     00034003  GBVM$actor_chest_interact$ea4b56   actor_chest_interact
     0003400C  GBVM$actor_chest_interact$82a92f   actor_chest_interact
     0003401B  GBVM$actor_chest_interact$7f0ecb   actor_chest_interact
     00034055  GBVM$actor_chest_interact$65f97a   actor_chest_interact
     0003405D  GBVM$actor_chest_interact$4dc1d0   actor_chest_interact
     0003408A  GBVM_END$actor_chest_interact$ea   actor_chest_interact
     0003408B  ___func_bg_leaving_earth_tilemap   bg_leaving_earth_tilemap
     0003408B  _bg_leaving_earth_tilemap          bg_leaving_earth_tilemap
     00035279  ___func_bg_platform_path_tilemap   bg_platform_path_tilemap_att
     00035279  _bg_platform_path_tilemap_attr     bg_platform_path_tilemap_att
     00036DFA  _song_rulz_battletheme_0_Data      song_rulz_battletheme_0_Data
     00036E0F  ___func_scene_deeper_underground   scene_deeper_underground_spr
     00036E0F  _scene_deeper_underground_sprite   scene_deeper_underground_spr
     00036E12  ___func_scene_space_battle_colli   scene_space_battle_collision
     00036E12  _scene_space_battle_collisions     scene_space_battle_collision

ASxxxx Linker V03.00/V05.40 + sdld,  page 93.
Hexadecimal  [32-Bits]

Area                                    Addr        Size        Decimal Bytes (Attributes)
--------------------------------        ----        ----        ------- ----- ------------
_CODE_5                             00054000    00004000 =       16384. bytes (REL,CON)

      Value  Global                              Global Defined In Module
      -----  --------------------------------   ------------------------
     00054000  ___func_bg_sample_town_tilemap_a   bg_sample_town_tilemap_attr
     00054000  _bg_sample_town_tilemap_attr       bg_sample_town_tilemap_attr
     00054C40  ___func_bg_sample_town_tilemap     bg_sample_town_tilemap
     00054C40  _bg_sample_town_tilemap            bg_sample_town_tilemap
     0005666F  _song_rulz_pause_underground_0_D   song_rulz_pause_underground_
     000572E3  _song_rulz_undergroundcave_0_Dat   song_rulz_undergroundcave_0_
     000572F8  ___func_scene_menu_page_1_sprite   scene_menu_page_1_sprites
     000572F8  _scene_menu_page_1_sprites         scene_menu_page_1_sprites
     000572FB  ___func_scene_menu_page_2_sprite   scene_menu_page_2_sprites
     000572FB  _scene_menu_page_2_sprites         scene_menu_page_2_sprites
     000572FE  ___func_scene_sample_town_collis   scene_sample_town_collisions
     000572FE  _scene_sample_town_collisions      scene_sample_town_collisions
     00057F3E  ___func_sprite_npc001_tileset      sprite_npc001_tileset
     00057F3E  _sprite_npc001_tileset             sprite_npc001_tileset

ASxxxx Linker V03.00/V05.40 + sdld,  page 94.
Hexadecimal  [32-Bits]

Area                                    Addr        Size        Decimal Bytes (Attributes)
--------------------------------        ----        ----        ------- ----- ------------
_HEADER_LCD0                        00000000    00000003 =           3. bytes (ABS,CON)

      Value  Global                              Global Defined In Module
      -----  --------------------------------   ------------------------
ASxxxx Linker V03.00/V05.40 + sdld,  page 95.

Files Linked                              [ module(s) ]

C:\tmp/_gbstools/gbdk/lib/gb/crt0.o       [ Runtime ]
C:/tmp/_gbsbuild/obj/absolute.rel         [ absolute ]
C:/tmp/_gbsbuild/obj/actor.rel            [ actor ]
C:/tmp/_gbsbuild/obj/bankdata.rel         [ bankdata ]
C:/tmp/_gbsbuild/obj/bootstrap.rel        [  ]
C:/tmp/_gbsbuild/obj/camera.rel           [ camera ]
C:/tmp/_gbsbuild/obj/core.rel             [ core ]
C:/tmp/_gbsbuild/obj/crash_handler.rel    [  ]
C:/tmp/_gbsbuild/obj/data_manager.rel     [ data_manager ]
C:/tmp/_gbsbuild/obj/events.rel           [ events ]
C:/tmp/_gbsbuild/obj/fade_manager.rel     [ fade_manager ]
C:/tmp/_gbsbuild/obj/flasher_s.rel        [  ]
C:/tmp/_gbsbuild/obj/flasher.rel          [ flasher ]
C:/tmp/_gbsbuild/obj/game_time.rel        [ game_time ]
C:/tmp/_gbsbuild/obj/gbprinter.rel        [ gbprinter ]
C:/tmp/_gbsbuild/obj/input.rel            [ input ]
C:/tmp/_gbsbuild/obj/interrupt_sio.rel    [  ]
C:/tmp/_gbsbuild/obj/interrupt_timer.rel  [  ]
C:/tmp/_gbsbuild/obj/interrupts.rel       [ interrupts ]
C:/tmp/_gbsbuild/obj/load_save.rel        [ load_save ]
C:/tmp/_gbsbuild/obj/math_atan2.rel       [ math_atan2 ]
C:/tmp/_gbsbuild/obj/math.rel             [ math ]
C:/tmp/_gbsbuild/obj/music_manager.rel    [ music_manager ]
C:/tmp/_gbsbuild/obj/palette.rel          [ palette ]
C:/tmp/_gbsbuild/obj/parallax.rel         [ parallax ]
C:/tmp/_gbsbuild/obj/projectiles.rel      [ projectiles ]
C:/tmp/_gbsbuild/obj/scroll_a.rel         [  ]
C:/tmp/_gbsbuild/obj/scroll.rel           [ scroll ]
C:/tmp/_gbsbuild/obj/set_tile_submap.rel  [  ]
C:/tmp/_gbsbuild/obj/sfx_player.rel       [ sfx_player ]
C:/tmp/_gbsbuild/obj/sgb_border.rel       [ sgb_border ]
C:/tmp/_gbsbuild/obj/sio.rel              [ sio ]
C:/tmp/_gbsbuild/obj/states_caller.rel    [  ]
C:/tmp/_gbsbuild/obj/system.rel           [ system ]
C:/tmp/_gbsbuild/obj/trigger.rel          [ trigger ]
C:/tmp/_gbsbuild/obj/ui_a.rel             [  ]
C:/tmp/_gbsbuild/obj/ui.rel               [ ui ]
C:/tmp/_gbsbuild/obj/vm_actor.rel         [ vm_actor ]
C:/tmp/_gbsbuild/obj/vm_camera.rel        [ vm_camera ]
C:/tmp/_gbsbuild/obj/vm_gameboy.rel       [ vm_gameboy ]
C:/tmp/_gbsbuild/obj/vm_gbprinter.rel     [ vm_gbprinter ]
C:/tmp/_gbsbuild/obj/vm_instructions.rel  [ vm_instructions ]
C:/tmp/_gbsbuild/obj/vm_load_save.rel     [ vm_load_save ]
C:/tmp/_gbsbuild/obj/vm_math.rel          [ vm_math ]
C:/tmp/_gbsbuild/obj/vm_music.rel         [ vm_music ]
C:/tmp/_gbsbuild/obj/vm_palette.rel       [ vm_palette ]
C:/tmp/_gbsbuild/obj/vm_projectiles.rel   [ vm_projectiles ]
C:/tmp/_gbsbuild/obj/vm_rtc.rel           [ vm_rtc ]
C:/tmp/_gbsbuild/obj/vm_scene.rel         [ vm_scene ]
C:/tmp/_gbsbuild/obj/vm_sgb.rel           [ vm_sgb ]
C:/tmp/_gbsbuild/obj/vm_sio.rel           [ vm_sio ]
C:/tmp/_gbsbuild/obj/vm_ui_a.rel          [ vm_ui_a ]
C:/tmp/_gbsbuild/obj/vm_ui.rel            [ vm_ui ]
C:/tmp/_gbsbuild/obj/vm.rel               [ vm ]
C:/tmp/_gbsbuild/obj/actor_10_interact.rel
                                          [ actor_10_interact ]
C:/tmp/_gbsbuild/obj/actor_10_update.rel  [ actor_10_update ]
C:/tmp/_gbsbuild/obj/actor_11_interact.rel
                                          [ actor_11_interact ]
C:/tmp/_gbsbuild/obj/actor_11_update.rel  [ actor_11_update ]
C:/tmp/_gbsbuild/obj/actor_12_interact.rel
                                          [ actor_12_interact ]
C:/tmp/_gbsbuild/obj/actor_12_update.rel  [ actor_12_update ]
C:/tmp/_gbsbuild/obj/actor_13_interact.rel
                                          [ actor_13_interact ]
C:/tmp/_gbsbuild/obj/actor_13_update.rel  [ actor_13_update ]
C:/tmp/_gbsbuild/obj/actor_14_interact.rel
                                          [ actor_14_interact ]
C:/tmp/_gbsbuild/obj/actor_14_update.rel  [ actor_14_update ]
C:/tmp/_gbsbuild/obj/actor_15_interact.rel
                                          [ actor_15_interact ]
C:/tmp/_gbsbuild/obj/actor_15_update.rel  [ actor_15_update ]
C:/tmp/_gbsbuild/obj/actor_16_interact.rel
                                          [ actor_16_interact ]
C:/tmp/_gbsbuild/obj/actor_16_update.rel  [ actor_16_update ]
C:/tmp/_gbsbuild/obj/actor_17_interact.rel
                                          [ actor_17_interact ]
C:/tmp/_gbsbuild/obj/actor_17_update.rel  [ actor_17_update ]
C:/tmp/_gbsbuild/obj/actor_18_interact.rel
                                          [ actor_18_interact ]
C:/tmp/_gbsbuild/obj/actor_19_interact.rel
                                          [ actor_19_interact ]
C:/tmp/_gbsbuild/obj/actor_20_interact.rel
                                          [ actor_20_interact ]
C:/tmp/_gbsbuild/obj/actor_20_update.rel  [ actor_20_update ]
C:/tmp/_gbsbuild/obj/actor_21_interact.rel
                                          [ actor_21_interact ]
C:/tmp/_gbsbuild/obj/actor_22_interact.rel
                                          [ actor_22_interact ]
C:/tmp/_gbsbuild/obj/actor_23_interact.rel
                                          [ actor_23_interact ]
C:/tmp/_gbsbuild/obj/actor_24_interact.rel
                                          [ actor_24_interact ]
C:/tmp/_gbsbuild/obj/actor_25_interact.rel
                                          [ actor_25_interact ]
C:/tmp/_gbsbuild/obj/actor_26_interact.rel
                                          [ actor_26_interact ]
C:/tmp/_gbsbuild/obj/actor_3_interact.rel
                                          [ actor_3_interact ]
C:/tmp/_gbsbuild/obj/actor_3_update.rel   [ actor_3_update ]
C:/tmp/_gbsbuild/obj/actor_4_interact.rel
                                          [ actor_4_interact ]
C:/tmp/_gbsbuild/obj/actor_4_update.rel   [ actor_4_update ]
C:/tmp/_gbsbuild/obj/actor_5_interact.rel
                                          [ actor_5_interact ]
C:/tmp/_gbsbuild/obj/actor_5_update.rel   [ actor_5_update ]
C:/tmp/_gbsbuild/obj/actor_6_interact.rel
                                          [ actor_6_interact ]
C:/tmp/_gbsbuild/obj/actor_6_update.rel   [ actor_6_update ]
C:/tmp/_gbsbuild/obj/actor_7_interact.rel
                                          [ actor_7_interact ]
C:/tmp/_gbsbuild/obj/actor_7_update.rel   [ actor_7_update ]
C:/tmp/_gbsbuild/obj/actor_8_interact.rel
                                          [ actor_8_interact ]
C:/tmp/_gbsbuild/obj/actor_8_update.rel   [ actor_8_update ]
C:/tmp/_gbsbuild/obj/actor_9_interact.rel
                                          [ actor_9_interact ]
C:/tmp/_gbsbuild/obj/actor_9_update.rel   [ actor_9_update ]
C:/tmp/_gbsbuild/obj/actor_angry_guy_interact.rel
                                          [ actor_angry_guy_interact ]
C:/tmp/_gbsbuild/obj/actor_cat_interact.rel
                                          [ actor_cat_interact ]
C:/tmp/_gbsbuild/obj/actor_chest_interact.rel
                                          [ actor_chest_interact ]
C:/tmp/_gbsbuild/obj/actor_gardener_interact.rel
                                          [ actor_gardener_interact ]
C:/tmp/_gbsbuild/obj/actor_hider_interact.rel
                                          [ actor_hider_interact ]
C:/tmp/_gbsbuild/obj/actor_ice_block_interact.rel
                                          [ actor_ice_block_interact ]
C:/tmp/_gbsbuild/obj/actor_machine_0_interact.rel
                                          [ actor_machine_0_interact ]
C:/tmp/_gbsbuild/obj/actor_machine_1_interact.rel
                                          [ actor_machine_1_interact ]
C:/tmp/_gbsbuild/obj/actor_machine_2_interact.rel
                                          [ actor_machine_2_interact ]
C:/tmp/_gbsbuild/obj/actor_machine_interact.rel
                                          [ actor_machine_interact ]
C:/tmp/_gbsbuild/obj/actor_oblivious_guy_interact.rel
                                          [ actor_oblivious_guy_interact ]
C:/tmp/_gbsbuild/obj/actor_pet_owner_interact.rel
                                          [ actor_pet_owner_interact ]
C:/tmp/_gbsbuild/obj/actor_pet_owner_update.rel
                                          [ actor_pet_owner_update ]
C:/tmp/_gbsbuild/obj/actor_radio_guy_interact.rel
                                          [ actor_radio_guy_interact ]
C:/tmp/_gbsbuild/obj/actor_radio_interact.rel
                                          [ actor_radio_interact ]
C:/tmp/_gbsbuild/obj/actor_rock_1_interact.rel
                                          [ actor_rock_1_interact ]
C:/tmp/_gbsbuild/obj/actor_rock_2_interact.rel
                                          [ actor_rock_2_interact ]
C:/tmp/_gbsbuild/obj/actor_rock_3_interact.rel
                                          [ actor_rock_3_interact ]
C:/tmp/_gbsbuild/obj/actor_rock_interact.rel
                                          [ actor_rock_interact ]
C:/tmp/_gbsbuild/obj/actor_sage_interact.rel
                                          [ actor_sage_interact ]
C:/tmp/_gbsbuild/obj/actor_save_point_0_interact.rel
                                          [ actor_save_point_0_interact ]
C:/tmp/_gbsbuild/obj/actor_save_point_1_interact.rel
                                          [ actor_save_point_1_interact ]
C:/tmp/_gbsbuild/obj/actor_save_point_interact.rel
                                          [ actor_save_point_interact ]
C:/tmp/_gbsbuild/obj/actor_scientist_interact.rel
                                          [ actor_scientist_interact ]
C:/tmp/_gbsbuild/obj/actor_scientist_update.rel
                                          [ actor_scientist_update ]
C:/tmp/_gbsbuild/obj/actor_sign_post_0_interact.rel
                                          [ actor_sign_post_0_interact ]
C:/tmp/_gbsbuild/obj/actor_sign_post_1_interact.rel
                                          [ actor_sign_post_1_interact ]
C:/tmp/_gbsbuild/obj/actor_sign_post_2_interact.rel
                                          [ actor_sign_post_2_interact ]
C:/tmp/_gbsbuild/obj/actor_sign_post_3_interact.rel
                                          [ actor_sign_post_3_interact ]
C:/tmp/_gbsbuild/obj/actor_sign_post_4_interact.rel
                                          [ actor_sign_post_4_interact ]
C:/tmp/_gbsbuild/obj/actor_sign_post_5_interact.rel
                                          [ actor_sign_post_5_interact ]
C:/tmp/_gbsbuild/obj/actor_sign_post_interact.rel
                                          [ actor_sign_post_interact ]
C:/tmp/_gbsbuild/obj/actor_space_dog_interact.rel
                                          [ actor_space_dog_interact ]
C:/tmp/_gbsbuild/obj/actor_turnip_1_interact.rel
                                          [ actor_turnip_1_interact ]
C:/tmp/_gbsbuild/obj/actor_turnip_1_update.rel
                                          [ actor_turnip_1_update ]
C:/tmp/_gbsbuild/obj/actor_turnip_2_interact.rel
                                          [ actor_turnip_2_interact ]
C:/tmp/_gbsbuild/obj/actor_turnip_2_update.rel
                                          [ actor_turnip_2_update ]
C:/tmp/_gbsbuild/obj/actor_turnip_3_interact.rel
                                          [ actor_turnip_3_interact ]
C:/tmp/_gbsbuild/obj/actor_turnip_3_update.rel
                                          [ actor_turnip_3_update ]
C:/tmp/_gbsbuild/obj/avatar_font_0.rel    [ avatar_font_0 ]
C:/tmp/_gbsbuild/obj/bg_black_tilemap_attr.rel
                                          [ bg_black_tilemap_attr ]
C:/tmp/_gbsbuild/obj/bg_black_tilemap.rel
                                          [ bg_black_tilemap ]
C:/tmp/_gbsbuild/obj/bg_black_tileset.rel
                                          [ bg_black_tileset ]
C:/tmp/_gbsbuild/obj/bg_black.rel         [ bg_black ]
C:/tmp/_gbsbuild/obj/bg_cave_tilemap_attr.rel
                                          [ bg_cave_tilemap_attr ]
C:/tmp/_gbsbuild/obj/bg_cave_tilemap.rel  [ bg_cave_tilemap ]
C:/tmp/_gbsbuild/obj/bg_cave_tileset.rel  [ bg_cave_tileset ]
C:/tmp/_gbsbuild/obj/bg_cave.rel          [ bg_cave ]
C:/tmp/_gbsbuild/obj/bg_hidden_cave_tilemap_attr.rel
                                          [ bg_hidden_cave_tilemap_attr ]
C:/tmp/_gbsbuild/obj/bg_hidden_cave_tilemap.rel
                                          [ bg_hidden_cave_tilemap ]
C:/tmp/_gbsbuild/obj/bg_hidden_cave_tileset.rel
                                          [ bg_hidden_cave_tileset ]
C:/tmp/_gbsbuild/obj/bg_hidden_cave.rel   [ bg_hidden_cave ]
C:/tmp/_gbsbuild/obj/bg_house_tilemap_attr.rel
                                          [ bg_house_tilemap_attr ]
C:/tmp/_gbsbuild/obj/bg_house_tilemap.rel
                                          [ bg_house_tilemap ]
C:/tmp/_gbsbuild/obj/bg_house_tileset.rel
                                          [ bg_house_tileset ]
C:/tmp/_gbsbuild/obj/bg_house.rel         [ bg_house ]
C:/tmp/_gbsbuild/obj/bg_launch_site_tilemap_attr.rel
                                          [ bg_launch_site_tilemap_attr ]
C:/tmp/_gbsbuild/obj/bg_launch_site_tilemap.rel
                                          [ bg_launch_site_tilemap ]
C:/tmp/_gbsbuild/obj/bg_launch_site_tileset.rel
                                          [ bg_launch_site_tileset ]
C:/tmp/_gbsbuild/obj/bg_launch_site.rel   [ bg_launch_site ]
C:/tmp/_gbsbuild/obj/bg_leaving_earth_tilemap_attr.rel
                                          [ bg_leaving_earth_tilemap_attr ]
C:/tmp/_gbsbuild/obj/bg_leaving_earth_tilemap.rel
                                          [ bg_leaving_earth_tilemap ]
C:/tmp/_gbsbuild/obj/bg_leaving_earth_tileset.rel
                                          [ bg_leaving_earth_tileset ]
C:/tmp/_gbsbuild/obj/bg_leaving_earth.rel
                                          [ bg_leaving_earth ]
C:/tmp/_gbsbuild/obj/bg_logo_tilemap_attr.rel
                                          [ bg_logo_tilemap_attr ]
C:/tmp/_gbsbuild/obj/bg_logo_tilemap.rel  [ bg_logo_tilemap ]
C:/tmp/_gbsbuild/obj/bg_logo_tileset.rel  [ bg_logo_tileset ]
C:/tmp/_gbsbuild/obj/bg_logo.rel          [ bg_logo ]
C:/tmp/_gbsbuild/obj/bg_menu_page1_tilemap_attr.rel
                                          [ bg_menu_page1_tilemap_attr ]
C:/tmp/_gbsbuild/obj/bg_menu_page1_tilemap.rel
                                          [ bg_menu_page1_tilemap ]
C:/tmp/_gbsbuild/obj/bg_menu_page1_tileset.rel
                                          [ bg_menu_page1_tileset ]
C:/tmp/_gbsbuild/obj/bg_menu_page1.rel    [ bg_menu_page1 ]
C:/tmp/_gbsbuild/obj/bg_menu_page2_tilemap_attr.rel
                                          [ bg_menu_page2_tilemap_attr ]
C:/tmp/_gbsbuild/obj/bg_menu_page2_tilemap.rel
                                          [ bg_menu_page2_tilemap ]
C:/tmp/_gbsbuild/obj/bg_menu_page2_tileset.rel
                                          [ bg_menu_page2_tileset ]
C:/tmp/_gbsbuild/obj/bg_menu_page2.rel    [ bg_menu_page2 ]
C:/tmp/_gbsbuild/obj/bg_parallax_tilemap_attr.rel
                                          [ bg_parallax_tilemap_attr ]
C:/tmp/_gbsbuild/obj/bg_parallax_tilemap.rel
                                          [ bg_parallax_tilemap ]
C:/tmp/_gbsbuild/obj/bg_parallax_tileset.rel
                                          [ bg_parallax_tileset ]
C:/tmp/_gbsbuild/obj/bg_parallax.rel      [ bg_parallax ]
C:/tmp/_gbsbuild/obj/bg_platform_path_tilemap_attr.rel
                                          [ bg_platform_path_tilemap_attr ]
C:/tmp/_gbsbuild/obj/bg_platform_path_tilemap.rel
                                          [ bg_platform_path_tilemap ]
C:/tmp/_gbsbuild/obj/bg_platform_path_tileset.rel
                                          [ bg_platform_path_tileset ]
C:/tmp/_gbsbuild/obj/bg_platform_path.rel
                                          [ bg_platform_path ]
C:/tmp/_gbsbuild/obj/bg_room_tilemap_attr.rel
                                          [ bg_room_tilemap_attr ]
C:/tmp/_gbsbuild/obj/bg_room_tilemap.rel  [ bg_room_tilemap ]
C:/tmp/_gbsbuild/obj/bg_room_tileset.rel  [ bg_room_tileset ]
C:/tmp/_gbsbuild/obj/bg_room.rel          [ bg_room ]
C:/tmp/_gbsbuild/obj/bg_sample_town_tilemap_attr.rel
                                          [ bg_sample_town_tilemap_attr ]
C:/tmp/_gbsbuild/obj/bg_sample_town_tilemap.rel
                                          [ bg_sample_town_tilemap ]
C:/tmp/_gbsbuild/obj/bg_sample_town_tileset.rel
                                          [ bg_sample_town_tileset ]
C:/tmp/_gbsbuild/obj/bg_sample_town.rel   [ bg_sample_town ]
C:/tmp/_gbsbuild/obj/bg_stars_tilemap_attr.rel
                                          [ bg_stars_tilemap_attr ]
C:/tmp/_gbsbuild/obj/bg_stars_tilemap.rel
                                          [ bg_stars_tilemap ]
C:/tmp/_gbsbuild/obj/bg_stars_tileset.rel
                                          [ bg_stars_tileset ]
C:/tmp/_gbsbuild/obj/bg_stars.rel         [ bg_stars ]
C:/tmp/_gbsbuild/obj/bg_titlescreen_tilemap_attr.rel
                                          [ bg_titlescreen_tilemap_attr ]
C:/tmp/_gbsbuild/obj/bg_titlescreen_tilemap.rel
                                          [ bg_titlescreen_tilemap ]
C:/tmp/_gbsbuild/obj/bg_titlescreen_tileset.rel
                                          [ bg_titlescreen_tileset ]
C:/tmp/_gbsbuild/obj/bg_titlescreen.rel   [ bg_titlescreen ]
C:/tmp/_gbsbuild/obj/bg_underground_tilemap_attr.rel
                                          [ bg_underground_tilemap_attr ]
C:/tmp/_gbsbuild/obj/bg_underground_tilemap.rel
                                          [ bg_underground_tilemap ]
C:/tmp/_gbsbuild/obj/bg_underground_tileset.rel
                                          [ bg_underground_tileset ]
C:/tmp/_gbsbuild/obj/bg_underground.rel   [ bg_underground ]
C:/tmp/_gbsbuild/obj/cursor_image.rel     [ cursor_image ]
C:/tmp/_gbsbuild/obj/emote_anger.rel      [ emote_anger ]
C:/tmp/_gbsbuild/obj/emote_music.rel      [ emote_music ]
C:/tmp/_gbsbuild/obj/emote_pause.rel      [ emote_pause ]
C:/tmp/_gbsbuild/obj/emote_shock.rel      [ emote_shock ]
C:/tmp/_gbsbuild/obj/emote_sweat.rel      [ emote_sweat ]
C:/tmp/_gbsbuild/obj/font_gbs_variable_width.rel
                                          [ font_gbs_variable_width ]
C:/tmp/_gbsbuild/obj/frame_image.rel      [ frame_image ]
C:/tmp/_gbsbuild/obj/game_signature.rel   [ game_signature ]
C:/tmp/_gbsbuild/obj/song_drum_example_Data.rel
                                          [ song_drum_example_Data ]
C:/tmp/_gbsbuild/obj/song_echo_example_Data.rel
                                          [ song_echo_example_Data ]
C:/tmp/_gbsbuild/obj/song_rulz_battletheme_0_Data.rel
                                          [ song_rulz_battletheme_0_Data ]
C:/tmp/_gbsbuild/obj/song_rulz_fastpacespeedrace_0_Data.rel
                                          [ song_rulz_fastpacespeedrace_0_Da ]
C:/tmp/_gbsbuild/obj/song_rulz_gonaspace_0_Data.rel
                                          [ song_rulz_gonaspace_0_Data ]
C:/tmp/_gbsbuild/obj/song_rulz_intro_0_Data.rel
                                          [ song_rulz_intro_0_Data ]
C:/tmp/_gbsbuild/obj/song_rulz_lightmood_0_Data.rel
                                          [ song_rulz_lightmood_0_Data ]
C:/tmp/_gbsbuild/obj/song_rulz_outside_0_Data.rel
                                          [ song_rulz_outside_0_Data ]
C:/tmp/_gbsbuild/obj/song_rulz_pause_underground_0_Data.rel
                                          [ song_rulz_pause_underground_0_Da ]
C:/tmp/_gbsbuild/obj/song_rulz_spaceemergency_0_Data.rel
                                          [ song_rulz_spaceemergency_0_Data ]
C:/tmp/_gbsbuild/obj/song_rulz_undergroundcave_0_Data.rel
                                          [ song_rulz_undergroundcave_0_Data ]
C:/tmp/_gbsbuild/obj/palette_0.rel        [ palette_0 ]
C:/tmp/_gbsbuild/obj/palette_1.rel        [ palette_1 ]
C:/tmp/_gbsbuild/obj/palette_10.rel       [ palette_10 ]
C:/tmp/_gbsbuild/obj/palette_2.rel        [ palette_2 ]
C:/tmp/_gbsbuild/obj/palette_3.rel        [ palette_3 ]
C:/tmp/_gbsbuild/obj/palette_4.rel        [ palette_4 ]
C:/tmp/_gbsbuild/obj/palette_5.rel        [ palette_5 ]
C:/tmp/_gbsbuild/obj/palette_6.rel        [ palette_6 ]
C:/tmp/_gbsbuild/obj/palette_7.rel        [ palette_7 ]
C:/tmp/_gbsbuild/obj/palette_8.rel        [ palette_8 ]
C:/tmp/_gbsbuild/obj/palette_9.rel        [ palette_9 ]
C:/tmp/_gbsbuild/obj/scene_17_actors.rel  [ scene_17_actors ]
C:/tmp/_gbsbuild/obj/scene_17_collisions.rel
                                          [ scene_17_collisions ]
C:/tmp/_gbsbuild/obj/scene_17_init.rel    [ scene_17_init ]
C:/tmp/_gbsbuild/obj/scene_17_sprites.rel
                                          [ scene_17_sprites ]
C:/tmp/_gbsbuild/obj/scene_17_triggers.rel
                                          [ scene_17_triggers ]
C:/tmp/_gbsbuild/obj/scene_17.rel         [ scene_17 ]
C:/tmp/_gbsbuild/obj/scene_cave_actors.rel
                                          [ scene_cave_actors ]
C:/tmp/_gbsbuild/obj/scene_cave_collisions.rel
                                          [ scene_cave_collisions ]
C:/tmp/_gbsbuild/obj/scene_cave_init.rel  [ scene_cave_init ]
C:/tmp/_gbsbuild/obj/scene_cave_sprites.rel
                                          [ scene_cave_sprites ]
C:/tmp/_gbsbuild/obj/scene_cave_triggers.rel
                                          [ scene_cave_triggers ]
C:/tmp/_gbsbuild/obj/scene_cave.rel       [ scene_cave ]
C:/tmp/_gbsbuild/obj/scene_deep_space_actors.rel
                                          [ scene_deep_space_actors ]
C:/tmp/_gbsbuild/obj/scene_deep_space_collisions.rel
                                          [ scene_deep_space_collisions ]
C:/tmp/_gbsbuild/obj/scene_deep_space_init.rel
                                          [ scene_deep_space_init ]
C:/tmp/_gbsbuild/obj/scene_deep_space_sprites.rel
                                          [ scene_deep_space_sprites ]
C:/tmp/_gbsbuild/obj/scene_deep_space_triggers.rel
                                          [ scene_deep_space_triggers ]
C:/tmp/_gbsbuild/obj/scene_deep_space.rel
                                          [ scene_deep_space ]
C:/tmp/_gbsbuild/obj/scene_deeper_underground_actors.rel
                                          [ scene_deeper_underground_actors ]
C:/tmp/_gbsbuild/obj/scene_deeper_underground_collisions.rel
                                          [ scene_deeper_underground_collisi ]
C:/tmp/_gbsbuild/obj/scene_deeper_underground_init.rel
                                          [ scene_deeper_underground_init ]
C:/tmp/_gbsbuild/obj/scene_deeper_underground_sprites.rel
                                          [ scene_deeper_underground_sprites ]
C:/tmp/_gbsbuild/obj/scene_deeper_underground_triggers.rel
                                          [ scene_deeper_underground_trigger ]
C:/tmp/_gbsbuild/obj/scene_deeper_underground.rel
                                          [ scene_deeper_underground ]
C:/tmp/_gbsbuild/obj/scene_dream_collisions.rel
                                          [ scene_dream_collisions ]
C:/tmp/_gbsbuild/obj/scene_dream_init.rel
                                          [ scene_dream_init ]
C:/tmp/_gbsbuild/obj/scene_dream.rel      [ scene_dream ]
C:/tmp/_gbsbuild/obj/scene_launch_site_actors.rel
                                          [ scene_launch_site_actors ]
C:/tmp/_gbsbuild/obj/scene_launch_site_collisions.rel
                                          [ scene_launch_site_collisions ]
C:/tmp/_gbsbuild/obj/scene_launch_site_init.rel
                                          [ scene_launch_site_init ]
C:/tmp/_gbsbuild/obj/scene_launch_site_sprites.rel
                                          [ scene_launch_site_sprites ]
C:/tmp/_gbsbuild/obj/scene_launch_site_triggers.rel
                                          [ scene_launch_site_triggers ]
C:/tmp/_gbsbuild/obj/scene_launch_site.rel
                                          [ scene_launch_site ]
C:/tmp/_gbsbuild/obj/scene_logo_collisions.rel
                                          [ scene_logo_collisions ]
C:/tmp/_gbsbuild/obj/scene_logo_init.rel  [ scene_logo_init ]
C:/tmp/_gbsbuild/obj/scene_logo.rel       [ scene_logo ]
C:/tmp/_gbsbuild/obj/scene_menu_page_1_actors.rel
                                          [ scene_menu_page_1_actors ]
C:/tmp/_gbsbuild/obj/scene_menu_page_1_collisions.rel
                                          [ scene_menu_page_1_collisions ]
C:/tmp/_gbsbuild/obj/scene_menu_page_1_init.rel
                                          [ scene_menu_page_1_init ]
C:/tmp/_gbsbuild/obj/scene_menu_page_1_sprites.rel
                                          [ scene_menu_page_1_sprites ]
C:/tmp/_gbsbuild/obj/scene_menu_page_1.rel
                                          [ scene_menu_page_1 ]
C:/tmp/_gbsbuild/obj/scene_menu_page_2_actors.rel
                                          [ scene_menu_page_2_actors ]
C:/tmp/_gbsbuild/obj/scene_menu_page_2_collisions.rel
                                          [ scene_menu_page_2_collisions ]
C:/tmp/_gbsbuild/obj/scene_menu_page_2_init.rel
                                          [ scene_menu_page_2_init ]
C:/tmp/_gbsbuild/obj/scene_menu_page_2_sprites.rel
                                          [ scene_menu_page_2_sprites ]
C:/tmp/_gbsbuild/obj/scene_menu_page_2.rel
                                          [ scene_menu_page_2 ]
C:/tmp/_gbsbuild/obj/scene_parallax_example_actors.rel
                                          [ scene_parallax_example_actors ]
C:/tmp/_gbsbuild/obj/scene_parallax_example_collisions.rel
                                          [ scene_parallax_example_collision ]
C:/tmp/_gbsbuild/obj/scene_parallax_example_init.rel
                                          [ scene_parallax_example_init ]
C:/tmp/_gbsbuild/obj/scene_parallax_example_sprites.rel
                                          [ scene_parallax_example_sprites ]
C:/tmp/_gbsbuild/obj/scene_parallax_example_triggers.rel
                                          [ scene_parallax_example_triggers ]
C:/tmp/_gbsbuild/obj/scene_parallax_example.rel
                                          [ scene_parallax_example ]
C:/tmp/_gbsbuild/obj/scene_path_to_sample_town_actors.rel
                                          [ scene_path_to_sample_town_actors ]
C:/tmp/_gbsbuild/obj/scene_path_to_sample_town_collisions.rel
                                          [ scene_path_to_sample_town_collis ]
C:/tmp/_gbsbuild/obj/scene_path_to_sample_town_init.rel
                                          [ scene_path_to_sample_town_init ]
C:/tmp/_gbsbuild/obj/scene_path_to_sample_town_sprites.rel
                                          [ scene_path_to_sample_town_sprite ]
C:/tmp/_gbsbuild/obj/scene_path_to_sample_town_triggers.rel
                                          [ scene_path_to_sample_town_trigge ]
C:/tmp/_gbsbuild/obj/scene_path_to_sample_town.rel
                                          [ scene_path_to_sample_town ]
C:/tmp/_gbsbuild/obj/scene_player_s_house_collisions.rel
                                          [ scene_player_s_house_collisions ]
C:/tmp/_gbsbuild/obj/scene_player_s_house_init.rel
                                          [ scene_player_s_house_init ]
C:/tmp/_gbsbuild/obj/scene_player_s_house_triggers.rel
                                          [ scene_player_s_house_triggers ]
C:/tmp/_gbsbuild/obj/scene_player_s_house.rel
                                          [ scene_player_s_house ]
C:/tmp/_gbsbuild/obj/scene_sample_town_actors.rel
                                          [ scene_sample_town_actors ]
C:/tmp/_gbsbuild/obj/scene_sample_town_collisions.rel
                                          [ scene_sample_town_collisions ]
C:/tmp/_gbsbuild/obj/scene_sample_town_init.rel
                                          [ scene_sample_town_init ]
C:/tmp/_gbsbuild/obj/scene_sample_town_sprites.rel
                                          [ scene_sample_town_sprites ]
C:/tmp/_gbsbuild/obj/scene_sample_town_triggers.rel
                                          [ scene_sample_town_triggers ]
C:/tmp/_gbsbuild/obj/scene_sample_town.rel
                                          [ scene_sample_town ]
C:/tmp/_gbsbuild/obj/scene_space_battle_actors.rel
                                          [ scene_space_battle_actors ]
C:/tmp/_gbsbuild/obj/scene_space_battle_collisions.rel
                                          [ scene_space_battle_collisions ]
C:/tmp/_gbsbuild/obj/scene_space_battle_init.rel
                                          [ scene_space_battle_init ]
C:/tmp/_gbsbuild/obj/scene_space_battle_p_hit1.rel
                                          [ scene_space_battle_p_hit1 ]
C:/tmp/_gbsbuild/obj/scene_space_battle_projectiles.rel
                                          [ scene_space_battle_projectiles ]
C:/tmp/_gbsbuild/obj/scene_space_battle_sprites.rel
                                          [ scene_space_battle_sprites ]
C:/tmp/_gbsbuild/obj/scene_space_battle_triggers.rel
                                          [ scene_space_battle_triggers ]
C:/tmp/_gbsbuild/obj/scene_space_battle.rel
                                          [ scene_space_battle ]
C:/tmp/_gbsbuild/obj/scene_title_screen_collisions.rel
                                          [ scene_title_screen_collisions ]
C:/tmp/_gbsbuild/obj/scene_title_screen_init.rel
                                          [ scene_title_screen_init ]
C:/tmp/_gbsbuild/obj/scene_title_screen.rel
                                          [ scene_title_screen ]
C:/tmp/_gbsbuild/obj/scene_top_house_actors.rel
                                          [ scene_top_house_actors ]
C:/tmp/_gbsbuild/obj/scene_top_house_collisions.rel
                                          [ scene_top_house_collisions ]
C:/tmp/_gbsbuild/obj/scene_top_house_init.rel
                                          [ scene_top_house_init ]
C:/tmp/_gbsbuild/obj/scene_top_house_sprites.rel
                                          [ scene_top_house_sprites ]
C:/tmp/_gbsbuild/obj/scene_top_house_triggers.rel
                                          [ scene_top_house_triggers ]
C:/tmp/_gbsbuild/obj/scene_top_house.rel  [ scene_top_house ]
C:/tmp/_gbsbuild/obj/scene_underground_actors.rel
                                          [ scene_underground_actors ]
C:/tmp/_gbsbuild/obj/scene_underground_collisions.rel
                                          [ scene_underground_collisions ]
C:/tmp/_gbsbuild/obj/scene_underground_init.rel
                                          [ scene_underground_init ]
C:/tmp/_gbsbuild/obj/scene_underground_sprites.rel
                                          [ scene_underground_sprites ]
C:/tmp/_gbsbuild/obj/scene_underground_triggers.rel
                                          [ scene_underground_triggers ]
C:/tmp/_gbsbuild/obj/scene_underground.rel
                                          [ scene_underground ]
C:/tmp/_gbsbuild/obj/script_enemy_ship_destroy.rel
                                          [ script_enemy_ship_destroy ]
C:/tmp/_gbsbuild/obj/script_enemy_ship_hit_playe.rel
                                          [ script_enemy_ship_hit_playe ]
C:/tmp/_gbsbuild/obj/script_enemy_ship_movement__0.rel
                                          [ script_enemy_ship_movement__0 ]
C:/tmp/_gbsbuild/obj/script_enemy_ship_movement__1.rel
                                          [ script_enemy_ship_movement__1 ]
C:/tmp/_gbsbuild/obj/script_enemy_ship_movement__2.rel
                                          [ script_enemy_ship_movement__2 ]
C:/tmp/_gbsbuild/obj/script_enemy_ship_movement_.rel
                                          [ script_enemy_ship_movement_ ]
C:/tmp/_gbsbuild/obj/script_engine_init.rel
                                          [  ]
C:/tmp/_gbsbuild/obj/script_init_menu.rel
                                          [ script_init_menu ]
C:/tmp/_gbsbuild/obj/script_init_weapons.rel
                                          [ script_init_weapons ]
C:/tmp/_gbsbuild/obj/script_input_5.rel   [ script_input_5 ]
C:/tmp/_gbsbuild/obj/script_input.rel     [ script_input ]
C:/tmp/_gbsbuild/obj/script_timer.rel     [ script_timer ]
C:/tmp/_gbsbuild/obj/sound_gbstudio_sfx_sav.rel
                                          [ sound_gbstudio_sfx_sav ]
C:/tmp/_gbsbuild/obj/sound_legacy_0.rel   [ sound_legacy_0 ]
C:/tmp/_gbsbuild/obj/sprite_bullet_left_tileset.rel
                                          [ sprite_bullet_left_tileset ]
C:/tmp/_gbsbuild/obj/sprite_bullet_left.rel
                                          [ sprite_bullet_left ]
C:/tmp/_gbsbuild/obj/sprite_bullet_right_tileset.rel
                                          [ sprite_bullet_right_tileset ]
C:/tmp/_gbsbuild/obj/sprite_bullet_right.rel
                                          [ sprite_bullet_right ]
C:/tmp/_gbsbuild/obj/sprite_cat_tileset.rel
                                          [ sprite_cat_tileset ]
C:/tmp/_gbsbuild/obj/sprite_cat.rel       [ sprite_cat ]
C:/tmp/_gbsbuild/obj/sprite_checkbox_tileset.rel
                                          [ sprite_checkbox_tileset ]
C:/tmp/_gbsbuild/obj/sprite_checkbox.rel  [ sprite_checkbox ]
C:/tmp/_gbsbuild/obj/sprite_chest_tileset.rel
                                          [ sprite_chest_tileset ]
C:/tmp/_gbsbuild/obj/sprite_chest.rel     [ sprite_chest ]
C:/tmp/_gbsbuild/obj/sprite_cursor_tileset.rel
                                          [ sprite_cursor_tileset ]
C:/tmp/_gbsbuild/obj/sprite_cursor.rel    [ sprite_cursor ]
C:/tmp/_gbsbuild/obj/sprite_dog_tileset.rel
                                          [ sprite_dog_tileset ]
C:/tmp/_gbsbuild/obj/sprite_dog.rel       [ sprite_dog ]
C:/tmp/_gbsbuild/obj/sprite_drumkit_tileset.rel
                                          [ sprite_drumkit_tileset ]
C:/tmp/_gbsbuild/obj/sprite_drumkit.rel   [ sprite_drumkit ]
C:/tmp/_gbsbuild/obj/sprite_duck_tileset.rel
                                          [ sprite_duck_tileset ]
C:/tmp/_gbsbuild/obj/sprite_duck.rel      [ sprite_duck ]
C:/tmp/_gbsbuild/obj/sprite_elephant_tileset.rel
                                          [ sprite_elephant_tileset ]
C:/tmp/_gbsbuild/obj/sprite_elephant.rel  [ sprite_elephant ]
C:/tmp/_gbsbuild/obj/sprite_enemy_ship_tileset.rel
                                          [ sprite_enemy_ship_tileset ]
C:/tmp/_gbsbuild/obj/sprite_enemy_ship.rel
                                          [ sprite_enemy_ship ]
C:/tmp/_gbsbuild/obj/sprite_fire_tileset.rel
                                          [ sprite_fire_tileset ]
C:/tmp/_gbsbuild/obj/sprite_fire.rel      [ sprite_fire ]
C:/tmp/_gbsbuild/obj/sprite_hidden_stairs_tileset.rel
                                          [ sprite_hidden_stairs_tileset ]
C:/tmp/_gbsbuild/obj/sprite_hidden_stairs.rel
                                          [ sprite_hidden_stairs ]
C:/tmp/_gbsbuild/obj/sprite_ice_tileset.rel
                                          [ sprite_ice_tileset ]
C:/tmp/_gbsbuild/obj/sprite_ice.rel       [ sprite_ice ]
C:/tmp/_gbsbuild/obj/sprite_keyboard_tileset.rel
                                          [ sprite_keyboard_tileset ]
C:/tmp/_gbsbuild/obj/sprite_keyboard.rel  [ sprite_keyboard ]
C:/tmp/_gbsbuild/obj/sprite_machine_tileset.rel
                                          [ sprite_machine_tileset ]
C:/tmp/_gbsbuild/obj/sprite_machine.rel   [ sprite_machine ]
C:/tmp/_gbsbuild/obj/sprite_npc_gardener_tileset.rel
                                          [ sprite_npc_gardener_tileset ]
C:/tmp/_gbsbuild/obj/sprite_npc_gardener.rel
                                          [ sprite_npc_gardener ]
C:/tmp/_gbsbuild/obj/sprite_npc001_tileset.rel
                                          [ sprite_npc001_tileset ]
C:/tmp/_gbsbuild/obj/sprite_npc001.rel    [ sprite_npc001 ]
C:/tmp/_gbsbuild/obj/sprite_npc002_tileset.rel
                                          [ sprite_npc002_tileset ]
C:/tmp/_gbsbuild/obj/sprite_npc002.rel    [ sprite_npc002 ]
C:/tmp/_gbsbuild/obj/sprite_npc003_tileset.rel
                                          [ sprite_npc003_tileset ]
C:/tmp/_gbsbuild/obj/sprite_npc003.rel    [ sprite_npc003 ]
C:/tmp/_gbsbuild/obj/sprite_npc004_tileset.rel
                                          [ sprite_npc004_tileset ]
C:/tmp/_gbsbuild/obj/sprite_npc004.rel    [ sprite_npc004 ]
C:/tmp/_gbsbuild/obj/sprite_npc005_tileset.rel
                                          [ sprite_npc005_tileset ]
C:/tmp/_gbsbuild/obj/sprite_npc005.rel    [ sprite_npc005 ]
C:/tmp/_gbsbuild/obj/sprite_npc007_tileset.rel
                                          [ sprite_npc007_tileset ]
C:/tmp/_gbsbuild/obj/sprite_npc007.rel    [ sprite_npc007 ]
C:/tmp/_gbsbuild/obj/sprite_npc008_tileset.rel
                                          [ sprite_npc008_tileset ]
C:/tmp/_gbsbuild/obj/sprite_npc008.rel    [ sprite_npc008 ]
C:/tmp/_gbsbuild/obj/sprite_player_platform_tileset.rel
                                          [ sprite_player_platform_tileset ]
C:/tmp/_gbsbuild/obj/sprite_player_platform.rel
                                          [ sprite_player_platform ]
C:/tmp/_gbsbuild/obj/sprite_player_ship_tileset.rel
                                          [ sprite_player_ship_tileset ]
C:/tmp/_gbsbuild/obj/sprite_player_ship.rel
                                          [ sprite_player_ship ]
C:/tmp/_gbsbuild/obj/sprite_player_tileset.rel
                                          [ sprite_player_tileset ]
C:/tmp/_gbsbuild/obj/sprite_player.rel    [ sprite_player ]
C:/tmp/_gbsbuild/obj/sprite_pod_door_tileset.rel
                                          [ sprite_pod_door_tileset ]
C:/tmp/_gbsbuild/obj/sprite_pod_door.rel  [ sprite_pod_door ]
C:/tmp/_gbsbuild/obj/sprite_portal_tileset.rel
                                          [ sprite_portal_tileset ]
C:/tmp/_gbsbuild/obj/sprite_portal.rel    [ sprite_portal ]
C:/tmp/_gbsbuild/obj/sprite_radio_tileset.rel
                                          [ sprite_radio_tileset ]
C:/tmp/_gbsbuild/obj/sprite_radio.rel     [ sprite_radio ]
C:/tmp/_gbsbuild/obj/sprite_rock_tileset.rel
                                          [ sprite_rock_tileset ]
C:/tmp/_gbsbuild/obj/sprite_rock.rel      [ sprite_rock ]
C:/tmp/_gbsbuild/obj/sprite_sage_tileset.rel
                                          [ sprite_sage_tileset ]
C:/tmp/_gbsbuild/obj/sprite_sage.rel      [ sprite_sage ]
C:/tmp/_gbsbuild/obj/sprite_savepoint_tileset.rel
                                          [ sprite_savepoint_tileset ]
C:/tmp/_gbsbuild/obj/sprite_savepoint.rel
                                          [ sprite_savepoint ]
C:/tmp/_gbsbuild/obj/sprite_signpost_tileset.rel
                                          [ sprite_signpost_tileset ]
C:/tmp/_gbsbuild/obj/sprite_signpost.rel  [ sprite_signpost ]
C:/tmp/_gbsbuild/obj/sprite_space_mine_tileset.rel
                                          [ sprite_space_mine_tileset ]
C:/tmp/_gbsbuild/obj/sprite_space_mine.rel
                                          [ sprite_space_mine ]
C:/tmp/_gbsbuild/obj/sprite_torch_tileset.rel
                                          [ sprite_torch_tileset ]
C:/tmp/_gbsbuild/obj/sprite_torch.rel     [ sprite_torch ]
C:/tmp/_gbsbuild/obj/sprite_turnip_tileset.rel
                                          [ sprite_turnip_tileset ]
C:/tmp/_gbsbuild/obj/sprite_turnip.rel    [ sprite_turnip ]
C:/tmp/_gbsbuild/obj/sprite_ui_weapon_tileset.rel
                                          [ sprite_ui_weapon_tileset ]
C:/tmp/_gbsbuild/obj/sprite_ui_weapon.rel
                                          [ sprite_ui_weapon ]
C:/tmp/_gbsbuild/obj/spritesheet_none.rel
                                          [ spritesheet_none ]
C:/tmp/_gbsbuild/obj/tileset_default_frame.rel
                                          [ tileset_default_frame ]
C:/tmp/_gbsbuild/obj/tileset_flowers.rel  [ tileset_flowers ]
C:/tmp/_gbsbuild/obj/tileset_waterfall.rel
                                          [ tileset_waterfall ]
C:/tmp/_gbsbuild/obj/trigger_0_interact.rel
                                          [ trigger_0_interact ]
C:/tmp/_gbsbuild/obj/trigger_1_interact.rel
                                          [ trigger_1_interact ]
C:/tmp/_gbsbuild/obj/trigger_10_interact.rel
                                          [ trigger_10_interact ]
C:/tmp/_gbsbuild/obj/trigger_11_interact.rel
                                          [ trigger_11_interact ]
C:/tmp/_gbsbuild/obj/trigger_12_interact.rel
                                          [ trigger_12_interact ]
C:/tmp/_gbsbuild/obj/trigger_13_interact.rel
                                          [ trigger_13_interact ]
C:/tmp/_gbsbuild/obj/trigger_14_interact.rel
                                          [ trigger_14_interact ]
C:/tmp/_gbsbuild/obj/trigger_15_interact.rel
                                          [ trigger_15_interact ]
C:/tmp/_gbsbuild/obj/trigger_16_interact.rel
                                          [ trigger_16_interact ]
C:/tmp/_gbsbuild/obj/trigger_17_interact.rel
                                          [ trigger_17_interact ]
C:/tmp/_gbsbuild/obj/trigger_18_interact.rel
                                          [ trigger_18_interact ]
C:/tmp/_gbsbuild/obj/trigger_19_interact.rel
                                          [ trigger_19_interact ]
C:/tmp/_gbsbuild/obj/trigger_2_interact.rel
                                          [ trigger_2_interact ]
C:/tmp/_gbsbuild/obj/trigger_20_interact.rel
                                          [ trigger_20_interact ]
C:/tmp/_gbsbuild/obj/trigger_21_interact.rel
                                          [ trigger_21_interact ]
C:/tmp/_gbsbuild/obj/trigger_22_interact.rel
                                          [ trigger_22_interact ]
C:/tmp/_gbsbuild/obj/trigger_23_interact.rel
                                          [ trigger_23_interact ]
C:/tmp/_gbsbuild/obj/trigger_24_interact.rel
                                          [ trigger_24_interact ]
C:/tmp/_gbsbuild/obj/trigger_25_interact.rel
                                          [ trigger_25_interact ]
C:/tmp/_gbsbuild/obj/trigger_26_interact.rel
                                          [ trigger_26_interact ]
C:/tmp/_gbsbuild/obj/trigger_27_interact.rel
                                          [ trigger_27_interact ]
C:/tmp/_gbsbuild/obj/trigger_28_interact.rel
                                          [ trigger_28_interact ]
C:/tmp/_gbsbuild/obj/trigger_29_interact.rel
                                          [ trigger_29_interact ]
C:/tmp/_gbsbuild/obj/trigger_3_interact.rel
                                          [ trigger_3_interact ]
C:/tmp/_gbsbuild/obj/trigger_30_interact.rel
                                          [ trigger_30_interact ]
C:/tmp/_gbsbuild/obj/trigger_31_interact.rel
                                          [ trigger_31_interact ]
C:/tmp/_gbsbuild/obj/trigger_32_interact.rel
                                          [ trigger_32_interact ]
C:/tmp/_gbsbuild/obj/trigger_33_interact.rel
                                          [ trigger_33_interact ]
C:/tmp/_gbsbuild/obj/trigger_34_interact.rel
                                          [ trigger_34_interact ]
C:/tmp/_gbsbuild/obj/trigger_35_interact.rel
                                          [ trigger_35_interact ]
C:/tmp/_gbsbuild/obj/trigger_36_interact.rel
                                          [ trigger_36_interact ]
C:/tmp/_gbsbuild/obj/trigger_37_interact.rel
                                          [ trigger_37_interact ]
C:/tmp/_gbsbuild/obj/trigger_38_interact.rel
                                          [ trigger_38_interact ]
C:/tmp/_gbsbuild/obj/trigger_39_interact.rel
                                          [ trigger_39_interact ]
C:/tmp/_gbsbuild/obj/trigger_4_interact.rel
                                          [ trigger_4_interact ]
C:/tmp/_gbsbuild/obj/trigger_40_interact.rel
                                          [ trigger_40_interact ]
C:/tmp/_gbsbuild/obj/trigger_41_interact.rel
                                          [ trigger_41_interact ]
C:/tmp/_gbsbuild/obj/trigger_5_interact.rel
                                          [ trigger_5_interact ]
C:/tmp/_gbsbuild/obj/trigger_6_interact.rel
                                          [ trigger_6_interact ]
C:/tmp/_gbsbuild/obj/trigger_7_interact.rel
                                          [ trigger_7_interact ]
C:/tmp/_gbsbuild/obj/trigger_8_interact.rel
                                          [ trigger_8_interact ]
C:/tmp/_gbsbuild/obj/trigger_9_interact.rel
                                          [ trigger_9_interact ]
C:/tmp/_gbsbuild/obj/main.rel             [ main ]
C:/tmp/_gbsbuild/obj/logo.rel             [ logo ]
C:/tmp/_gbsbuild/obj/platform.rel         [ platform ]
C:/tmp/_gbsbuild/obj/pointnclick.rel      [ pointnclick ]
C:/tmp/_gbsbuild/obj/shmup.rel            [ shmup ]
C:/tmp/_gbsbuild/obj/states_ptrs.rel      [  ]
C:/tmp/_gbsbuild/obj/topdown.rel          [ topdown ]


Libraries Linked                          [ object file ]

C:\tmp/_gbstools/gbdk/lib/gb/gb.lib       [ fill_rect_wi.o ]
C:\tmp/_gbstools/gbdk/lib/sm83/sm83.lib   [ rand.o ]
lib/hUGEDriver.lib                        [ hUGEDriver.o ]
C:\tmp/_gbstools/gbdk/lib/gb/gb.lib       [ sfr.o ]
C:\tmp/_gbstools/gbdk/lib/gb/gb.lib       [ get_data.o ]
C:\tmp/_gbstools/gbdk/lib/gb/gb.lib       [ get_tile.o ]
C:\tmp/_gbstools/gbdk/lib/gb/gb.lib       [ cgb_palettes.o ]
C:\tmp/_gbstools/gbdk/lib/gb/gb.lib       [ metasprites_hide_spr.o ]
C:\tmp/_gbstools/gbdk/lib/sm83/sm83.lib   [ mul.o ]
C:\tmp/_gbstools/gbdk/lib/gb/gb.lib       [ set_tile.o ]
C:\tmp/_gbstools/gbdk/lib/sm83/sm83.lib   [ abs.o ]
C:\tmp/_gbstools/gbdk/lib/gb/gb.lib       [ set_wi_t.o ]
C:\tmp/_gbstools/gbdk/lib/gb/gb.lib       [ set_data.o ]
C:\tmp/_gbstools/gbdk/lib/sm83/sm83.lib   [ reverse.o ]
C:\tmp/_gbstools/gbdk/lib/gb/gb.lib       [ far_ptr.o ]
C:\tmp/_gbstools/gbdk/lib/gb/gb.lib       [ sgb.o ]
C:\tmp/_gbstools/gbdk/lib/gb/gb.lib       [ lcd.o ]
C:\tmp/_gbstools/gbdk/lib/gb/gb.lib       [ fill_rect.o ]
C:\tmp/_gbstools/gbdk/lib/gb/gb.lib       [ cpy_data.o ]
C:\tmp/_gbstools/gbdk/lib/gb/gb.lib       [ fill_rect_bk.o ]
C:\tmp/_gbstools/gbdk/lib/gb/gb.lib       [ pad.o ]
C:\tmp/_gbstools/gbdk/lib/gb/gb.lib       [ metasprites.o ]
C:\tmp/_gbstools/gbdk/lib/sm83/sm83.lib   [ __sdcc_call_hl.o ]
C:\tmp/_gbstools/gbdk/lib/sm83/sm83.lib   [ memcpy.o ]
C:\tmp/_gbstools/gbdk/lib/sm83/sm83.lib   [ _memset.o ]
C:\tmp/_gbstools/gbdk/lib/gb/gb.lib       [ set_xy_t.o ]
C:\tmp/_gbstools/gbdk/lib/gb/gb.lib       [ ___sdcc_bcall_ehl.o ]
C:\tmp/_gbstools/gbdk/lib/gb/gb.lib       [ cgb.o ]
C:\tmp/_gbstools/gbdk/lib/sm83/sm83.lib   [ div.o ]
C:\tmp/_gbstools/gbdk/lib/gb/gb.lib       [ set_bk_t.o ]

ASxxxx Linker V03.00/V05.40 + sdld,  page 96.

User Base Address Definitions

_DATA=0xC0A0
_CODE=0x0200
ASxxxx Linker V03.00/V05.40 + sdld,  page 97.

User Global Definitions

.STACK=0xDF00
_shadow_OAM=0xC000
.refresh_OAM=0xFF80
__start_save=12

